
Objecting\kernel.elf:     file format elf32-i386


Disassembly of section .text:

00100000 <multiboot_header>:
  100000:	02 b0 ad 1b 07 00    	add    0x71bad(%eax),%dh
  100006:	00 00                	add    %al,(%eax)
  100008:	f7 4f 52 e4 00 00 00 	testl  $0xe4,0x52(%edi)
	...
  100023:	00 00                	add    %al,(%eax)
  100025:	04 00                	add    $0x0,%al
  100027:	00 00                	add    %al,(%eax)
  100029:	03 00                	add    (%eax),%eax
  10002b:	00 20                	add    %ah,(%eax)
  10002d:	00 00                	add    %al,(%eax)
	...

00100030 <_start>:
  100030:	89 1d 00 e0 10 00    	mov    %ebx,0x10e000
  100036:	bc 00 30 11 00       	mov    $0x113000,%esp
  10003b:	e8 b0 02 00 00       	call   1002f0 <kernel_main>
  100040:	fa                   	cli

00100041 <_start.hang>:
  100041:	f4                   	hlt
  100042:	eb fd                	jmp    100041 <_start.hang>
  100044:	66 90                	xchg   %ax,%ax
  100046:	66 90                	xchg   %ax,%ax
  100048:	66 90                	xchg   %ax,%ax
  10004a:	66 90                	xchg   %ax,%ax
  10004c:	66 90                	xchg   %ax,%ax
  10004e:	66 90                	xchg   %ax,%ax
  100050:	66 90                	xchg   %ax,%ax
  100052:	66 90                	xchg   %ax,%ax
  100054:	66 90                	xchg   %ax,%ax
  100056:	66 90                	xchg   %ax,%ax
  100058:	66 90                	xchg   %ax,%ax
  10005a:	66 90                	xchg   %ax,%ax
  10005c:	66 90                	xchg   %ax,%ax
  10005e:	66 90                	xchg   %ax,%ax
  100060:	66 90                	xchg   %ax,%ax
  100062:	66 90                	xchg   %ax,%ax
  100064:	66 90                	xchg   %ax,%ax
  100066:	66 90                	xchg   %ax,%ax
  100068:	66 90                	xchg   %ax,%ax
  10006a:	66 90                	xchg   %ax,%ax
  10006c:	66 90                	xchg   %ax,%ax
  10006e:	66 90                	xchg   %ax,%ax
  100070:	66 90                	xchg   %ax,%ax
  100072:	66 90                	xchg   %ax,%ax
  100074:	66 90                	xchg   %ax,%ax
  100076:	66 90                	xchg   %ax,%ax
  100078:	66 90                	xchg   %ax,%ax
  10007a:	66 90                	xchg   %ax,%ax
  10007c:	66 90                	xchg   %ax,%ax
  10007e:	66 90                	xchg   %ax,%ax

00100080 <test_program1>:
  100080:	55                   	push   %ebp
  100081:	89 e5                	mov    %esp,%ebp
  100083:	53                   	push   %ebx
  100084:	8d 5d d8             	lea    -0x28(%ebp),%ebx
  100087:	83 ec 24             	sub    $0x24,%esp
  10008a:	eb 34                	jmp    1000c0 <test_program1+0x40>
  10008c:	8d 74 26 00          	lea    0x0(%esi,%eiz,1),%esi
  100090:	2e 8d b4 26 00 00 00 	lea    %cs:0x0(%esi,%eiz,1),%esi
  100097:	00 
  100098:	2e 8d b4 26 00 00 00 	lea    %cs:0x0(%esi,%eiz,1),%esi
  10009f:	00 
  1000a0:	2e 8d b4 26 00 00 00 	lea    %cs:0x0(%esi,%eiz,1),%esi
  1000a7:	00 
  1000a8:	2e 8d b4 26 00 00 00 	lea    %cs:0x0(%esi,%eiz,1),%esi
  1000af:	00 
  1000b0:	2e 8d b4 26 00 00 00 	lea    %cs:0x0(%esi,%eiz,1),%esi
  1000b7:	00 
  1000b8:	2e 8d b4 26 00 00 00 	lea    %cs:0x0(%esi,%eiz,1),%esi
  1000bf:	00 
  1000c0:	a1 2c 30 11 00       	mov    0x11302c,%eax
  1000c5:	83 c0 01             	add    $0x1,%eax
  1000c8:	a3 2c 30 11 00       	mov    %eax,0x11302c
  1000cd:	a1 2c 30 11 00       	mov    0x11302c,%eax
  1000d2:	69 c0 1d e6 cb 0b    	imul   $0xbcbe61d,%eax,%eax
  1000d8:	05 40 7c 0a 00       	add    $0xa7c40,%eax
  1000dd:	c1 c8 06             	ror    $0x6,%eax
  1000e0:	3d e2 53 00 00       	cmp    $0x53e2,%eax
  1000e5:	77 d9                	ja     1000c0 <test_program1+0x40>
  1000e7:	83 ec 0c             	sub    $0xc,%esp
  1000ea:	68 00 30 11 00       	push   $0x113000
  1000ef:	e8 0c 73 00 00       	call   107400 <mutex_lock>
  1000f4:	83 c4 0c             	add    $0xc,%esp
  1000f7:	68 8c b9 10 00       	push   $0x10b98c
  1000fc:	6a 00                	push   $0x0
  1000fe:	6a 16                	push   $0x16
  100100:	e8 eb 0b 00 00       	call   100cf0 <terminal_writeat>
  100105:	a1 2c 30 11 00       	mov    0x11302c,%eax
  10010a:	83 c4 0c             	add    $0xc,%esp
  10010d:	6a 0a                	push   $0xa
  10010f:	53                   	push   %ebx
  100110:	50                   	push   %eax
  100111:	e8 1a 08 00 00       	call   100930 <itoa>
  100116:	83 c4 0c             	add    $0xc,%esp
  100119:	53                   	push   %ebx
  10011a:	6a 0f                	push   $0xf
  10011c:	6a 16                	push   $0x16
  10011e:	e8 cd 0b 00 00       	call   100cf0 <terminal_writeat>
  100123:	89 1c 24             	mov    %ebx,(%esp)
  100126:	e8 85 04 00 00       	call   1005b0 <strlen>
  10012b:	83 c4 0c             	add    $0xc,%esp
  10012e:	83 c0 0f             	add    $0xf,%eax
  100131:	68 9c b9 10 00       	push   $0x10b99c
  100136:	0f b6 c0             	movzbl %al,%eax
  100139:	50                   	push   %eax
  10013a:	6a 16                	push   $0x16
  10013c:	e8 af 0b 00 00       	call   100cf0 <terminal_writeat>
  100141:	c7 04 24 00 30 11 00 	movl   $0x113000,(%esp)
  100148:	e8 43 73 00 00       	call   107490 <mutex_unlock>
  10014d:	83 c4 10             	add    $0x10,%esp
  100150:	e9 6b ff ff ff       	jmp    1000c0 <test_program1+0x40>
  100155:	8d 76 00             	lea    0x0(%esi),%esi
  100158:	2e 8d b4 26 00 00 00 	lea    %cs:0x0(%esi,%eiz,1),%esi
  10015f:	00 

00100160 <test_program2>:
  100160:	55                   	push   %ebp
  100161:	89 e5                	mov    %esp,%ebp
  100163:	53                   	push   %ebx
  100164:	8d 5d d8             	lea    -0x28(%ebp),%ebx
  100167:	83 ec 24             	sub    $0x24,%esp
  10016a:	8d b6 00 00 00 00    	lea    0x0(%esi),%esi
  100170:	2e 8d b4 26 00 00 00 	lea    %cs:0x0(%esi,%eiz,1),%esi
  100177:	00 
  100178:	2e 8d b4 26 00 00 00 	lea    %cs:0x0(%esi,%eiz,1),%esi
  10017f:	00 
  100180:	a1 2c 30 11 00       	mov    0x11302c,%eax
  100185:	83 c0 01             	add    $0x1,%eax
  100188:	a3 2c 30 11 00       	mov    %eax,0x11302c
  10018d:	a1 2c 30 11 00       	mov    0x11302c,%eax
  100192:	69 c0 1d e6 cb 0b    	imul   $0xbcbe61d,%eax,%eax
  100198:	05 40 7c 0a 00       	add    $0xa7c40,%eax
  10019d:	c1 c8 06             	ror    $0x6,%eax
  1001a0:	3d e2 53 00 00       	cmp    $0x53e2,%eax
  1001a5:	77 d9                	ja     100180 <test_program2+0x20>
  1001a7:	83 ec 0c             	sub    $0xc,%esp
  1001aa:	68 00 30 11 00       	push   $0x113000
  1001af:	e8 4c 72 00 00       	call   107400 <mutex_lock>
  1001b4:	83 c4 0c             	add    $0xc,%esp
  1001b7:	68 a7 b9 10 00       	push   $0x10b9a7
  1001bc:	6a 00                	push   $0x0
  1001be:	6a 17                	push   $0x17
  1001c0:	e8 2b 0b 00 00       	call   100cf0 <terminal_writeat>
  1001c5:	a1 2c 30 11 00       	mov    0x11302c,%eax
  1001ca:	83 c4 0c             	add    $0xc,%esp
  1001cd:	6a 0a                	push   $0xa
  1001cf:	53                   	push   %ebx
  1001d0:	50                   	push   %eax
  1001d1:	e8 5a 07 00 00       	call   100930 <itoa>
  1001d6:	83 c4 0c             	add    $0xc,%esp
  1001d9:	53                   	push   %ebx
  1001da:	6a 0f                	push   $0xf
  1001dc:	6a 17                	push   $0x17
  1001de:	e8 0d 0b 00 00       	call   100cf0 <terminal_writeat>
  1001e3:	89 1c 24             	mov    %ebx,(%esp)
  1001e6:	e8 c5 03 00 00       	call   1005b0 <strlen>
  1001eb:	83 c4 0c             	add    $0xc,%esp
  1001ee:	83 c0 0f             	add    $0xf,%eax
  1001f1:	68 9c b9 10 00       	push   $0x10b99c
  1001f6:	0f b6 c0             	movzbl %al,%eax
  1001f9:	50                   	push   %eax
  1001fa:	6a 17                	push   $0x17
  1001fc:	e8 ef 0a 00 00       	call   100cf0 <terminal_writeat>
  100201:	c7 04 24 00 30 11 00 	movl   $0x113000,(%esp)
  100208:	e8 83 72 00 00       	call   107490 <mutex_unlock>
  10020d:	83 c4 10             	add    $0x10,%esp
  100210:	e9 6b ff ff ff       	jmp    100180 <test_program2+0x20>
  100215:	8d 76 00             	lea    0x0(%esi),%esi
  100218:	2e 8d b4 26 00 00 00 	lea    %cs:0x0(%esi,%eiz,1),%esi
  10021f:	00 

00100220 <demo_processes>:
  100220:	55                   	push   %ebp
  100221:	89 e5                	mov    %esp,%ebp
  100223:	56                   	push   %esi
  100224:	53                   	push   %ebx
  100225:	83 ec 1c             	sub    $0x1c,%esp
  100228:	68 b7 b9 10 00       	push   $0x10b9b7
  10022d:	e8 de 09 00 00       	call   100c10 <terminal_writestring>
  100232:	6a 00                	push   $0x0
  100234:	68 80 00 00 00       	push   $0x80
  100239:	68 80 00 10 00       	push   $0x100080
  10023e:	68 d5 b9 10 00       	push   $0x10b9d5
  100243:	e8 d8 4f 00 00       	call   105220 <process_create_ex>
  100248:	83 c4 20             	add    $0x20,%esp
  10024b:	6a 00                	push   $0x0
  10024d:	89 c6                	mov    %eax,%esi
  10024f:	6a 64                	push   $0x64
  100251:	68 60 01 10 00       	push   $0x100160
  100256:	68 db b9 10 00       	push   $0x10b9db
  10025b:	e8 c0 4f 00 00       	call   105220 <process_create_ex>
  100260:	83 c4 10             	add    $0x10,%esp
  100263:	89 c3                	mov    %eax,%ebx
  100265:	85 f6                	test   %esi,%esi
  100267:	7e 36                	jle    10029f <demo_processes+0x7f>
  100269:	83 ec 0c             	sub    $0xc,%esp
  10026c:	68 34 ca 10 00       	push   $0x10ca34
  100271:	e8 9a 09 00 00       	call   100c10 <terminal_writestring>
  100276:	83 c4 0c             	add    $0xc,%esp
  100279:	8d 45 e8             	lea    -0x18(%ebp),%eax
  10027c:	6a 0a                	push   $0xa
  10027e:	50                   	push   %eax
  10027f:	56                   	push   %esi
  100280:	e8 ab 06 00 00       	call   100930 <itoa>
  100285:	8d 45 e8             	lea    -0x18(%ebp),%eax
  100288:	89 04 24             	mov    %eax,(%esp)
  10028b:	e8 80 09 00 00       	call   100c10 <terminal_writestring>
  100290:	c7 04 24 a9 bf 10 00 	movl   $0x10bfa9,(%esp)
  100297:	e8 74 09 00 00       	call   100c10 <terminal_writestring>
  10029c:	83 c4 10             	add    $0x10,%esp
  10029f:	85 db                	test   %ebx,%ebx
  1002a1:	7e 33                	jle    1002d6 <demo_processes+0xb6>
  1002a3:	83 ec 0c             	sub    $0xc,%esp
  1002a6:	8d 75 e8             	lea    -0x18(%ebp),%esi
  1002a9:	68 58 ca 10 00       	push   $0x10ca58
  1002ae:	e8 5d 09 00 00       	call   100c10 <terminal_writestring>
  1002b3:	83 c4 0c             	add    $0xc,%esp
  1002b6:	6a 0a                	push   $0xa
  1002b8:	56                   	push   %esi
  1002b9:	53                   	push   %ebx
  1002ba:	e8 71 06 00 00       	call   100930 <itoa>
  1002bf:	89 34 24             	mov    %esi,(%esp)
  1002c2:	e8 49 09 00 00       	call   100c10 <terminal_writestring>
  1002c7:	c7 04 24 a9 bf 10 00 	movl   $0x10bfa9,(%esp)
  1002ce:	e8 3d 09 00 00       	call   100c10 <terminal_writestring>
  1002d3:	83 c4 10             	add    $0x10,%esp
  1002d6:	8d 65 f8             	lea    -0x8(%ebp),%esp
  1002d9:	5b                   	pop    %ebx
  1002da:	5e                   	pop    %esi
  1002db:	5d                   	pop    %ebp
  1002dc:	e9 0f 56 00 00       	jmp    1058f0 <process_list>
  1002e1:	8d b4 26 00 00 00 00 	lea    0x0(%esi,%eiz,1),%esi
  1002e8:	2e 8d b4 26 00 00 00 	lea    %cs:0x0(%esi,%eiz,1),%esi
  1002ef:	00 

001002f0 <kernel_main>:
  1002f0:	55                   	push   %ebp
  1002f1:	89 e5                	mov    %esp,%ebp
  1002f3:	53                   	push   %ebx
  1002f4:	83 ec 14             	sub    $0x14,%esp
  1002f7:	e8 e4 09 00 00       	call   100ce0 <terminal_initialize>
  1002fc:	83 ec 0c             	sub    $0xc,%esp
  1002ff:	68 7c ca 10 00       	push   $0x10ca7c
  100304:	e8 07 09 00 00       	call   100c10 <terminal_writestring>
  100309:	c7 04 24 e1 b9 10 00 	movl   $0x10b9e1,(%esp)
  100310:	e8 fb 08 00 00       	call   100c10 <terminal_writestring>
  100315:	e8 56 0a 00 00       	call   100d70 <gdt_init>
  10031a:	e8 71 0c 00 00       	call   100f90 <idt_install>
  10031f:	58                   	pop    %eax
  100320:	5a                   	pop    %edx
  100321:	6a 28                	push   $0x28
  100323:	6a 20                	push   $0x20
  100325:	e8 a6 0b 00 00       	call   100ed0 <pic_remap>
  10032a:	e8 11 21 00 00       	call   102440 <framebuffer_init>
  10032f:	e8 8c 48 00 00       	call   104bc0 <memory_init>
  100334:	e8 a7 57 00 00       	call   105ae0 <process_init>
  100339:	e8 72 5d 00 00       	call   1060b0 <syscall_init>
  10033e:	e8 dd 7b 00 00       	call   107f20 <sync_init>
  100343:	e8 c8 99 00 00       	call   109d10 <debugger_init>
  100348:	59                   	pop    %ecx
  100349:	5b                   	pop    %ebx
  10034a:	68 ed b9 10 00       	push   $0x10b9ed
  10034f:	68 00 30 11 00       	push   $0x113000
  100354:	e8 47 70 00 00       	call   1073a0 <mutex_init>
  100359:	58                   	pop    %eax
  10035a:	5a                   	pop    %edx
  10035b:	6a 00                	push   $0x0
  10035d:	68 f9 b9 10 00       	push   $0x10b9f9
  100362:	e8 89 79 00 00       	call   107cf0 <sem_create>
  100367:	c7 04 24 02 ba 10 00 	movl   $0x10ba02,(%esp)
  10036e:	e8 dd 7a 00 00       	call   107e50 <msg_queue_create>
  100373:	e8 c8 17 00 00       	call   101b40 <keyboard_init>
  100378:	c7 04 24 64 00 00 00 	movl   $0x64,(%esp)
  10037f:	e8 0c 1a 00 00       	call   101d90 <timer_init>
  100384:	e8 67 1d 00 00       	call   1020f0 <mouse_init>
  100389:	e8 52 21 00 00       	call   1024e0 <dma_init>
  10038e:	e8 8d 9b 00 00       	call   109f20 <sound_init>
  100393:	c7 04 24 a8 ca 10 00 	movl   $0x10caa8,(%esp)
  10039a:	e8 71 08 00 00       	call   100c10 <terminal_writestring>
  10039f:	e8 7c fe ff ff       	call   100220 <demo_processes>
  1003a4:	e8 f7 2e 00 00       	call   1032a0 <dma_demo>
  1003a9:	c7 04 24 cc ca 10 00 	movl   $0x10cacc,(%esp)
  1003b0:	e8 5b 08 00 00       	call   100c10 <terminal_writestring>
  1003b5:	c7 04 24 c0 b6 10 00 	movl   $0x10b6c0,(%esp)
  1003bc:	e8 1f 9e 00 00       	call   10a1e0 <sound_loop_melody>
  1003c1:	fb                   	sti
  1003c2:	c7 04 24 0d ba 10 00 	movl   $0x10ba0d,(%esp)
  1003c9:	8d 5d f7             	lea    -0x9(%ebp),%ebx
  1003cc:	e8 3f 08 00 00       	call   100c10 <terminal_writestring>
  1003d1:	c7 04 24 ec ca 10 00 	movl   $0x10caec,(%esp)
  1003d8:	e8 33 08 00 00       	call   100c10 <terminal_writestring>
  1003dd:	c7 04 24 10 cb 10 00 	movl   $0x10cb10,(%esp)
  1003e4:	e8 27 08 00 00       	call   100c10 <terminal_writestring>
  1003e9:	83 c4 10             	add    $0x10,%esp
  1003ec:	eb 03                	jmp    1003f1 <kernel_main+0x101>
  1003ee:	66 90                	xchg   %ax,%ax
  1003f0:	f4                   	hlt
  1003f1:	a1 20 3d 11 00       	mov    0x113d20,%eax
  1003f6:	85 c0                	test   %eax,%eax
  1003f8:	75 26                	jne    100420 <kernel_main+0x130>
  1003fa:	83 ec 0c             	sub    $0xc,%esp
  1003fd:	53                   	push   %ebx
  1003fe:	e8 cd 16 00 00       	call   101ad0 <keyboard_buffer_read>
  100403:	83 c4 10             	add    $0x10,%esp
  100406:	85 c0                	test   %eax,%eax
  100408:	74 e6                	je     1003f0 <kernel_main+0x100>
  10040a:	0f be 45 f7          	movsbl -0x9(%ebp),%eax
  10040e:	83 ec 0c             	sub    $0xc,%esp
  100411:	50                   	push   %eax
  100412:	e8 99 06 00 00       	call   100ab0 <terminal_putchar>
  100417:	83 c4 10             	add    $0x10,%esp
  10041a:	eb de                	jmp    1003fa <kernel_main+0x10a>
  10041c:	8d 74 26 00          	lea    0x0(%esi,%eiz,1),%esi
  100420:	c7 05 20 3d 11 00 00 	movl   $0x0,0x113d20
  100427:	00 00 00 
  10042a:	83 ec 0c             	sub    $0xc,%esp
  10042d:	68 48 cb 10 00       	push   $0x10cb48
  100432:	e8 d9 07 00 00       	call   100c10 <terminal_writestring>
  100437:	e8 34 7d 00 00       	call   108170 <debugger_run>
  10043c:	c7 04 24 29 ba 10 00 	movl   $0x10ba29,(%esp)
  100443:	e8 c8 07 00 00       	call   100c10 <terminal_writestring>
  100448:	83 c4 10             	add    $0x10,%esp
  10044b:	eb ad                	jmp    1003fa <kernel_main+0x10a>
  10044d:	66 90                	xchg   %ax,%ax
  10044f:	66 90                	xchg   %ax,%ax
  100451:	66 90                	xchg   %ax,%ax
  100453:	66 90                	xchg   %ax,%ax
  100455:	66 90                	xchg   %ax,%ax
  100457:	66 90                	xchg   %ax,%ax
  100459:	66 90                	xchg   %ax,%ax
  10045b:	66 90                	xchg   %ax,%ax
  10045d:	66 90                	xchg   %ax,%ax
  10045f:	90                   	nop

00100460 <memcpy>:
  100460:	55                   	push   %ebp
  100461:	89 e5                	mov    %esp,%ebp
  100463:	56                   	push   %esi
  100464:	53                   	push   %ebx
  100465:	8b 5d 10             	mov    0x10(%ebp),%ebx
  100468:	8b 75 08             	mov    0x8(%ebp),%esi
  10046b:	85 db                	test   %ebx,%ebx
  10046d:	74 21                	je     100490 <memcpy+0x30>
  10046f:	8b 45 0c             	mov    0xc(%ebp),%eax
  100472:	89 f2                	mov    %esi,%edx
  100474:	01 c3                	add    %eax,%ebx
  100476:	66 90                	xchg   %ax,%ax
  100478:	2e 8d b4 26 00 00 00 	lea    %cs:0x0(%esi,%eiz,1),%esi
  10047f:	00 
  100480:	0f b6 08             	movzbl (%eax),%ecx
  100483:	83 c0 01             	add    $0x1,%eax
  100486:	83 c2 01             	add    $0x1,%edx
  100489:	88 4a ff             	mov    %cl,-0x1(%edx)
  10048c:	39 d8                	cmp    %ebx,%eax
  10048e:	75 f0                	jne    100480 <memcpy+0x20>
  100490:	89 f0                	mov    %esi,%eax
  100492:	5b                   	pop    %ebx
  100493:	5e                   	pop    %esi
  100494:	5d                   	pop    %ebp
  100495:	c3                   	ret
  100496:	66 90                	xchg   %ax,%ax
  100498:	2e 8d b4 26 00 00 00 	lea    %cs:0x0(%esi,%eiz,1),%esi
  10049f:	00 

001004a0 <memset>:
  1004a0:	55                   	push   %ebp
  1004a1:	89 e5                	mov    %esp,%ebp
  1004a3:	56                   	push   %esi
  1004a4:	8b 75 10             	mov    0x10(%ebp),%esi
  1004a7:	8b 55 0c             	mov    0xc(%ebp),%edx
  1004aa:	53                   	push   %ebx
  1004ab:	8b 5d 08             	mov    0x8(%ebp),%ebx
  1004ae:	8d 0c 1e             	lea    (%esi,%ebx,1),%ecx
  1004b1:	85 f6                	test   %esi,%esi
  1004b3:	74 27                	je     1004dc <memset+0x3c>
  1004b5:	89 ce                	mov    %ecx,%esi
  1004b7:	89 d8                	mov    %ebx,%eax
  1004b9:	29 de                	sub    %ebx,%esi
  1004bb:	83 e6 01             	and    $0x1,%esi
  1004be:	74 10                	je     1004d0 <memset+0x30>
  1004c0:	8d 43 01             	lea    0x1(%ebx),%eax
  1004c3:	88 13                	mov    %dl,(%ebx)
  1004c5:	39 c8                	cmp    %ecx,%eax
  1004c7:	74 13                	je     1004dc <memset+0x3c>
  1004c9:	8d b4 26 00 00 00 00 	lea    0x0(%esi,%eiz,1),%esi
  1004d0:	88 10                	mov    %dl,(%eax)
  1004d2:	83 c0 02             	add    $0x2,%eax
  1004d5:	88 50 ff             	mov    %dl,-0x1(%eax)
  1004d8:	39 c8                	cmp    %ecx,%eax
  1004da:	75 f4                	jne    1004d0 <memset+0x30>
  1004dc:	89 d8                	mov    %ebx,%eax
  1004de:	5b                   	pop    %ebx
  1004df:	5e                   	pop    %esi
  1004e0:	5d                   	pop    %ebp
  1004e1:	c3                   	ret
  1004e2:	8d b6 00 00 00 00    	lea    0x0(%esi),%esi
  1004e8:	2e 8d b4 26 00 00 00 	lea    %cs:0x0(%esi,%eiz,1),%esi
  1004ef:	00 

001004f0 <memmove>:
  1004f0:	55                   	push   %ebp
  1004f1:	89 e5                	mov    %esp,%ebp
  1004f3:	56                   	push   %esi
  1004f4:	8b 45 0c             	mov    0xc(%ebp),%eax
  1004f7:	8b 55 10             	mov    0x10(%ebp),%edx
  1004fa:	53                   	push   %ebx
  1004fb:	8b 5d 08             	mov    0x8(%ebp),%ebx
  1004fe:	39 c3                	cmp    %eax,%ebx
  100500:	73 2e                	jae    100530 <memmove+0x40>
  100502:	85 d2                	test   %edx,%edx
  100504:	74 1a                	je     100520 <memmove+0x30>
  100506:	89 de                	mov    %ebx,%esi
  100508:	01 c2                	add    %eax,%edx
  10050a:	8d b6 00 00 00 00    	lea    0x0(%esi),%esi
  100510:	0f b6 08             	movzbl (%eax),%ecx
  100513:	83 c0 01             	add    $0x1,%eax
  100516:	83 c6 01             	add    $0x1,%esi
  100519:	88 4e ff             	mov    %cl,-0x1(%esi)
  10051c:	39 d0                	cmp    %edx,%eax
  10051e:	75 f0                	jne    100510 <memmove+0x20>
  100520:	89 d8                	mov    %ebx,%eax
  100522:	5b                   	pop    %ebx
  100523:	5e                   	pop    %esi
  100524:	5d                   	pop    %ebp
  100525:	c3                   	ret
  100526:	66 90                	xchg   %ax,%ax
  100528:	2e 8d b4 26 00 00 00 	lea    %cs:0x0(%esi,%eiz,1),%esi
  10052f:	00 
  100530:	39 d8                	cmp    %ebx,%eax
  100532:	73 ec                	jae    100520 <memmove+0x30>
  100534:	85 d2                	test   %edx,%edx
  100536:	74 e8                	je     100520 <memmove+0x30>
  100538:	2e 8d b4 26 00 00 00 	lea    %cs:0x0(%esi,%eiz,1),%esi
  10053f:	00 
  100540:	83 ea 01             	sub    $0x1,%edx
  100543:	0f b6 0c 10          	movzbl (%eax,%edx,1),%ecx
  100547:	88 0c 13             	mov    %cl,(%ebx,%edx,1)
  10054a:	75 f4                	jne    100540 <memmove+0x50>
  10054c:	89 d8                	mov    %ebx,%eax
  10054e:	5b                   	pop    %ebx
  10054f:	5e                   	pop    %esi
  100550:	5d                   	pop    %ebp
  100551:	c3                   	ret
  100552:	8d b6 00 00 00 00    	lea    0x0(%esi),%esi
  100558:	2e 8d b4 26 00 00 00 	lea    %cs:0x0(%esi,%eiz,1),%esi
  10055f:	00 

00100560 <memcmp>:
  100560:	55                   	push   %ebp
  100561:	89 e5                	mov    %esp,%ebp
  100563:	56                   	push   %esi
  100564:	8b 75 10             	mov    0x10(%ebp),%esi
  100567:	53                   	push   %ebx
  100568:	85 f6                	test   %esi,%esi
  10056a:	74 34                	je     1005a0 <memcmp+0x40>
  10056c:	8b 45 08             	mov    0x8(%ebp),%eax
  10056f:	8b 55 0c             	mov    0xc(%ebp),%edx
  100572:	01 c6                	add    %eax,%esi
  100574:	eb 14                	jmp    10058a <memcmp+0x2a>
  100576:	66 90                	xchg   %ax,%ax
  100578:	2e 8d b4 26 00 00 00 	lea    %cs:0x0(%esi,%eiz,1),%esi
  10057f:	00 
  100580:	83 c0 01             	add    $0x1,%eax
  100583:	83 c2 01             	add    $0x1,%edx
  100586:	39 f0                	cmp    %esi,%eax
  100588:	74 16                	je     1005a0 <memcmp+0x40>
  10058a:	0f b6 08             	movzbl (%eax),%ecx
  10058d:	0f b6 1a             	movzbl (%edx),%ebx
  100590:	38 d9                	cmp    %bl,%cl
  100592:	74 ec                	je     100580 <memcmp+0x20>
  100594:	0f b6 c1             	movzbl %cl,%eax
  100597:	29 d8                	sub    %ebx,%eax
  100599:	5b                   	pop    %ebx
  10059a:	5e                   	pop    %esi
  10059b:	5d                   	pop    %ebp
  10059c:	c3                   	ret
  10059d:	8d 76 00             	lea    0x0(%esi),%esi
  1005a0:	5b                   	pop    %ebx
  1005a1:	31 c0                	xor    %eax,%eax
  1005a3:	5e                   	pop    %esi
  1005a4:	5d                   	pop    %ebp
  1005a5:	c3                   	ret
  1005a6:	66 90                	xchg   %ax,%ax
  1005a8:	2e 8d b4 26 00 00 00 	lea    %cs:0x0(%esi,%eiz,1),%esi
  1005af:	00 

001005b0 <strlen>:
  1005b0:	55                   	push   %ebp
  1005b1:	31 c0                	xor    %eax,%eax
  1005b3:	89 e5                	mov    %esp,%ebp
  1005b5:	8b 55 08             	mov    0x8(%ebp),%edx
  1005b8:	80 3a 00             	cmpb   $0x0,(%edx)
  1005bb:	74 0c                	je     1005c9 <strlen+0x19>
  1005bd:	8d 76 00             	lea    0x0(%esi),%esi
  1005c0:	83 c0 01             	add    $0x1,%eax
  1005c3:	80 3c 02 00          	cmpb   $0x0,(%edx,%eax,1)
  1005c7:	75 f7                	jne    1005c0 <strlen+0x10>
  1005c9:	5d                   	pop    %ebp
  1005ca:	c3                   	ret
  1005cb:	2e 8d 74 26 00       	lea    %cs:0x0(%esi,%eiz,1),%esi

001005d0 <strcpy>:
  1005d0:	55                   	push   %ebp
  1005d1:	31 c0                	xor    %eax,%eax
  1005d3:	89 e5                	mov    %esp,%ebp
  1005d5:	53                   	push   %ebx
  1005d6:	8b 4d 08             	mov    0x8(%ebp),%ecx
  1005d9:	8b 5d 0c             	mov    0xc(%ebp),%ebx
  1005dc:	8d 74 26 00          	lea    0x0(%esi,%eiz,1),%esi
  1005e0:	0f b6 14 03          	movzbl (%ebx,%eax,1),%edx
  1005e4:	88 14 01             	mov    %dl,(%ecx,%eax,1)
  1005e7:	83 c0 01             	add    $0x1,%eax
  1005ea:	84 d2                	test   %dl,%dl
  1005ec:	75 f2                	jne    1005e0 <strcpy+0x10>
  1005ee:	8b 5d fc             	mov    -0x4(%ebp),%ebx
  1005f1:	89 c8                	mov    %ecx,%eax
  1005f3:	c9                   	leave
  1005f4:	c3                   	ret
  1005f5:	8d 76 00             	lea    0x0(%esi),%esi
  1005f8:	2e 8d b4 26 00 00 00 	lea    %cs:0x0(%esi,%eiz,1),%esi
  1005ff:	00 

00100600 <strncpy>:
  100600:	55                   	push   %ebp
  100601:	31 c0                	xor    %eax,%eax
  100603:	89 e5                	mov    %esp,%ebp
  100605:	56                   	push   %esi
  100606:	8b 4d 10             	mov    0x10(%ebp),%ecx
  100609:	8b 75 0c             	mov    0xc(%ebp),%esi
  10060c:	53                   	push   %ebx
  10060d:	8b 5d 08             	mov    0x8(%ebp),%ebx
  100610:	85 c9                	test   %ecx,%ecx
  100612:	75 16                	jne    10062a <strncpy+0x2a>
  100614:	eb 48                	jmp    10065e <strncpy+0x5e>
  100616:	66 90                	xchg   %ax,%ax
  100618:	2e 8d b4 26 00 00 00 	lea    %cs:0x0(%esi,%eiz,1),%esi
  10061f:	00 
  100620:	88 14 03             	mov    %dl,(%ebx,%eax,1)
  100623:	83 c0 01             	add    $0x1,%eax
  100626:	39 c1                	cmp    %eax,%ecx
  100628:	74 34                	je     10065e <strncpy+0x5e>
  10062a:	0f b6 14 06          	movzbl (%esi,%eax,1),%edx
  10062e:	84 d2                	test   %dl,%dl
  100630:	75 ee                	jne    100620 <strncpy+0x20>
  100632:	39 c8                	cmp    %ecx,%eax
  100634:	73 28                	jae    10065e <strncpy+0x5e>
  100636:	01 d9                	add    %ebx,%ecx
  100638:	01 d8                	add    %ebx,%eax
  10063a:	89 ca                	mov    %ecx,%edx
  10063c:	29 c2                	sub    %eax,%edx
  10063e:	83 e2 01             	and    $0x1,%edx
  100641:	74 0d                	je     100650 <strncpy+0x50>
  100643:	c6 00 00             	movb   $0x0,(%eax)
  100646:	83 c0 01             	add    $0x1,%eax
  100649:	39 c1                	cmp    %eax,%ecx
  10064b:	74 11                	je     10065e <strncpy+0x5e>
  10064d:	8d 76 00             	lea    0x0(%esi),%esi
  100650:	c6 00 00             	movb   $0x0,(%eax)
  100653:	83 c0 02             	add    $0x2,%eax
  100656:	c6 40 ff 00          	movb   $0x0,-0x1(%eax)
  10065a:	39 c1                	cmp    %eax,%ecx
  10065c:	75 f2                	jne    100650 <strncpy+0x50>
  10065e:	89 d8                	mov    %ebx,%eax
  100660:	5b                   	pop    %ebx
  100661:	5e                   	pop    %esi
  100662:	5d                   	pop    %ebp
  100663:	c3                   	ret
  100664:	8d 74 26 00          	lea    0x0(%esi,%eiz,1),%esi
  100668:	2e 8d b4 26 00 00 00 	lea    %cs:0x0(%esi,%eiz,1),%esi
  10066f:	00 

00100670 <strcmp>:
  100670:	55                   	push   %ebp
  100671:	89 e5                	mov    %esp,%ebp
  100673:	53                   	push   %ebx
  100674:	8b 55 08             	mov    0x8(%ebp),%edx
  100677:	8b 4d 0c             	mov    0xc(%ebp),%ecx
  10067a:	0f b6 02             	movzbl (%edx),%eax
  10067d:	84 c0                	test   %al,%al
  10067f:	75 2d                	jne    1006ae <strcmp+0x3e>
  100681:	eb 4a                	jmp    1006cd <strcmp+0x5d>
  100683:	eb 1b                	jmp    1006a0 <strcmp+0x30>
  100685:	8d 76 00             	lea    0x0(%esi),%esi
  100688:	2e 8d b4 26 00 00 00 	lea    %cs:0x0(%esi,%eiz,1),%esi
  10068f:	00 
  100690:	2e 8d b4 26 00 00 00 	lea    %cs:0x0(%esi,%eiz,1),%esi
  100697:	00 
  100698:	2e 8d b4 26 00 00 00 	lea    %cs:0x0(%esi,%eiz,1),%esi
  10069f:	00 
  1006a0:	0f b6 42 01          	movzbl 0x1(%edx),%eax
  1006a4:	83 c2 01             	add    $0x1,%edx
  1006a7:	84 c0                	test   %al,%al
  1006a9:	74 15                	je     1006c0 <strcmp+0x50>
  1006ab:	83 c1 01             	add    $0x1,%ecx
  1006ae:	0f b6 19             	movzbl (%ecx),%ebx
  1006b1:	38 c3                	cmp    %al,%bl
  1006b3:	74 eb                	je     1006a0 <strcmp+0x30>
  1006b5:	29 d8                	sub    %ebx,%eax
  1006b7:	8b 5d fc             	mov    -0x4(%ebp),%ebx
  1006ba:	c9                   	leave
  1006bb:	c3                   	ret
  1006bc:	8d 74 26 00          	lea    0x0(%esi,%eiz,1),%esi
  1006c0:	0f b6 59 01          	movzbl 0x1(%ecx),%ebx
  1006c4:	31 c0                	xor    %eax,%eax
  1006c6:	29 d8                	sub    %ebx,%eax
  1006c8:	8b 5d fc             	mov    -0x4(%ebp),%ebx
  1006cb:	c9                   	leave
  1006cc:	c3                   	ret
  1006cd:	0f b6 19             	movzbl (%ecx),%ebx
  1006d0:	31 c0                	xor    %eax,%eax
  1006d2:	eb e1                	jmp    1006b5 <strcmp+0x45>
  1006d4:	8d 74 26 00          	lea    0x0(%esi,%eiz,1),%esi
  1006d8:	2e 8d b4 26 00 00 00 	lea    %cs:0x0(%esi,%eiz,1),%esi
  1006df:	00 

001006e0 <strncmp>:
  1006e0:	55                   	push   %ebp
  1006e1:	89 e5                	mov    %esp,%ebp
  1006e3:	56                   	push   %esi
  1006e4:	8b 75 10             	mov    0x10(%ebp),%esi
  1006e7:	53                   	push   %ebx
  1006e8:	85 f6                	test   %esi,%esi
  1006ea:	74 3c                	je     100728 <strncmp+0x48>
  1006ec:	8b 45 08             	mov    0x8(%ebp),%eax
  1006ef:	8b 4d 0c             	mov    0xc(%ebp),%ecx
  1006f2:	01 c6                	add    %eax,%esi
  1006f4:	eb 18                	jmp    10070e <strncmp+0x2e>
  1006f6:	66 90                	xchg   %ax,%ax
  1006f8:	2e 8d b4 26 00 00 00 	lea    %cs:0x0(%esi,%eiz,1),%esi
  1006ff:	00 
  100700:	84 d2                	test   %dl,%dl
  100702:	74 2c                	je     100730 <strncmp+0x50>
  100704:	83 c0 01             	add    $0x1,%eax
  100707:	83 c1 01             	add    $0x1,%ecx
  10070a:	39 c6                	cmp    %eax,%esi
  10070c:	74 1a                	je     100728 <strncmp+0x48>
  10070e:	0f b6 18             	movzbl (%eax),%ebx
  100711:	0f b6 11             	movzbl (%ecx),%edx
  100714:	38 d3                	cmp    %dl,%bl
  100716:	74 e8                	je     100700 <strncmp+0x20>
  100718:	0f b6 c3             	movzbl %bl,%eax
  10071b:	5b                   	pop    %ebx
  10071c:	29 d0                	sub    %edx,%eax
  10071e:	5e                   	pop    %esi
  10071f:	5d                   	pop    %ebp
  100720:	c3                   	ret
  100721:	8d b4 26 00 00 00 00 	lea    0x0(%esi,%eiz,1),%esi
  100728:	5b                   	pop    %ebx
  100729:	31 c0                	xor    %eax,%eax
  10072b:	5e                   	pop    %esi
  10072c:	5d                   	pop    %ebp
  10072d:	c3                   	ret
  10072e:	66 90                	xchg   %ax,%ax
  100730:	31 c0                	xor    %eax,%eax
  100732:	eb e7                	jmp    10071b <strncmp+0x3b>
  100734:	8d 74 26 00          	lea    0x0(%esi,%eiz,1),%esi
  100738:	2e 8d b4 26 00 00 00 	lea    %cs:0x0(%esi,%eiz,1),%esi
  10073f:	00 

00100740 <strcat>:
  100740:	55                   	push   %ebp
  100741:	89 e5                	mov    %esp,%ebp
  100743:	56                   	push   %esi
  100744:	8b 75 08             	mov    0x8(%ebp),%esi
  100747:	53                   	push   %ebx
  100748:	8b 5d 0c             	mov    0xc(%ebp),%ebx
  10074b:	89 f2                	mov    %esi,%edx
  10074d:	80 3e 00             	cmpb   $0x0,(%esi)
  100750:	74 16                	je     100768 <strcat+0x28>
  100752:	8d b6 00 00 00 00    	lea    0x0(%esi),%esi
  100758:	2e 8d b4 26 00 00 00 	lea    %cs:0x0(%esi,%eiz,1),%esi
  10075f:	00 
  100760:	83 c2 01             	add    $0x1,%edx
  100763:	80 3a 00             	cmpb   $0x0,(%edx)
  100766:	75 f8                	jne    100760 <strcat+0x20>
  100768:	31 c0                	xor    %eax,%eax
  10076a:	8d b6 00 00 00 00    	lea    0x0(%esi),%esi
  100770:	0f b6 0c 03          	movzbl (%ebx,%eax,1),%ecx
  100774:	88 0c 02             	mov    %cl,(%edx,%eax,1)
  100777:	83 c0 01             	add    $0x1,%eax
  10077a:	84 c9                	test   %cl,%cl
  10077c:	75 f2                	jne    100770 <strcat+0x30>
  10077e:	89 f0                	mov    %esi,%eax
  100780:	5b                   	pop    %ebx
  100781:	5e                   	pop    %esi
  100782:	5d                   	pop    %ebp
  100783:	c3                   	ret
  100784:	8d 74 26 00          	lea    0x0(%esi,%eiz,1),%esi
  100788:	2e 8d b4 26 00 00 00 	lea    %cs:0x0(%esi,%eiz,1),%esi
  10078f:	00 

00100790 <strchr>:
  100790:	55                   	push   %ebp
  100791:	89 e5                	mov    %esp,%ebp
  100793:	8b 45 08             	mov    0x8(%ebp),%eax
  100796:	8b 4d 0c             	mov    0xc(%ebp),%ecx
  100799:	0f b6 10             	movzbl (%eax),%edx
  10079c:	38 ca                	cmp    %cl,%dl
  10079e:	75 1b                	jne    1007bb <strchr+0x2b>
  1007a0:	eb 1f                	jmp    1007c1 <strchr+0x31>
  1007a2:	8d b6 00 00 00 00    	lea    0x0(%esi),%esi
  1007a8:	2e 8d b4 26 00 00 00 	lea    %cs:0x0(%esi,%eiz,1),%esi
  1007af:	00 
  1007b0:	0f b6 50 01          	movzbl 0x1(%eax),%edx
  1007b4:	83 c0 01             	add    $0x1,%eax
  1007b7:	38 ca                	cmp    %cl,%dl
  1007b9:	74 06                	je     1007c1 <strchr+0x31>
  1007bb:	84 d2                	test   %dl,%dl
  1007bd:	75 f1                	jne    1007b0 <strchr+0x20>
  1007bf:	31 c0                	xor    %eax,%eax
  1007c1:	5d                   	pop    %ebp
  1007c2:	c3                   	ret
  1007c3:	2e 8d 74 26 00       	lea    %cs:0x0(%esi,%eiz,1),%esi
  1007c8:	2e 8d b4 26 00 00 00 	lea    %cs:0x0(%esi,%eiz,1),%esi
  1007cf:	00 

001007d0 <strrchr>:
  1007d0:	55                   	push   %ebp
  1007d1:	89 e5                	mov    %esp,%ebp
  1007d3:	53                   	push   %ebx
  1007d4:	8b 45 08             	mov    0x8(%ebp),%eax
  1007d7:	0f b6 10             	movzbl (%eax),%edx
  1007da:	84 d2                	test   %dl,%dl
  1007dc:	74 32                	je     100810 <strrchr+0x40>
  1007de:	0f b6 5d 0c          	movzbl 0xc(%ebp),%ebx
  1007e2:	31 c9                	xor    %ecx,%ecx
  1007e4:	8d 74 26 00          	lea    0x0(%esi,%eiz,1),%esi
  1007e8:	2e 8d b4 26 00 00 00 	lea    %cs:0x0(%esi,%eiz,1),%esi
  1007ef:	00 
  1007f0:	38 d3                	cmp    %dl,%bl
  1007f2:	0f 44 c8             	cmove  %eax,%ecx
  1007f5:	0f b6 50 01          	movzbl 0x1(%eax),%edx
  1007f9:	83 c0 01             	add    $0x1,%eax
  1007fc:	84 d2                	test   %dl,%dl
  1007fe:	75 f0                	jne    1007f0 <strrchr+0x20>
  100800:	8b 5d fc             	mov    -0x4(%ebp),%ebx
  100803:	89 c8                	mov    %ecx,%eax
  100805:	c9                   	leave
  100806:	c3                   	ret
  100807:	90                   	nop
  100808:	2e 8d b4 26 00 00 00 	lea    %cs:0x0(%esi,%eiz,1),%esi
  10080f:	00 
  100810:	31 c9                	xor    %ecx,%ecx
  100812:	8b 5d fc             	mov    -0x4(%ebp),%ebx
  100815:	c9                   	leave
  100816:	89 c8                	mov    %ecx,%eax
  100818:	c3                   	ret
  100819:	8d b4 26 00 00 00 00 	lea    0x0(%esi,%eiz,1),%esi

00100820 <putchar>:
  100820:	55                   	push   %ebp
  100821:	0f b6 15 31 30 11 00 	movzbl 0x113031,%edx
  100828:	89 e5                	mov    %esp,%ebp
  10082a:	53                   	push   %ebx
  10082b:	8b 45 08             	mov    0x8(%ebp),%eax
  10082e:	3c 0a                	cmp    $0xa,%al
  100830:	74 31                	je     100863 <putchar+0x43>
  100832:	3c 0d                	cmp    $0xd,%al
  100834:	74 52                	je     100888 <putchar+0x68>
  100836:	0f b6 ca             	movzbl %dl,%ecx
  100839:	0f b6 1d 30 30 11 00 	movzbl 0x113030,%ebx
  100840:	66 98                	cbtw
  100842:	8d 0c 89             	lea    (%ecx,%ecx,4),%ecx
  100845:	80 cc 07             	or     $0x7,%ah
  100848:	c1 e1 04             	shl    $0x4,%ecx
  10084b:	01 d9                	add    %ebx,%ecx
  10084d:	66 89 84 09 00 80 0b 	mov    %ax,0xb8000(%ecx,%ecx,1)
  100854:	00 
  100855:	0f b6 05 30 30 11 00 	movzbl 0x113030,%eax
  10085c:	83 c0 01             	add    $0x1,%eax
  10085f:	3c 4f                	cmp    $0x4f,%al
  100861:	76 35                	jbe    100898 <putchar+0x78>
  100863:	83 c2 01             	add    $0x1,%edx
  100866:	c6 05 30 30 11 00 00 	movb   $0x0,0x113030
  10086d:	88 15 31 30 11 00    	mov    %dl,0x113031
  100873:	80 fa 18             	cmp    $0x18,%dl
  100876:	76 07                	jbe    10087f <putchar+0x5f>
  100878:	c6 05 31 30 11 00 00 	movb   $0x0,0x113031
  10087f:	8b 5d fc             	mov    -0x4(%ebp),%ebx
  100882:	c9                   	leave
  100883:	c3                   	ret
  100884:	8d 74 26 00          	lea    0x0(%esi,%eiz,1),%esi
  100888:	c6 05 30 30 11 00 00 	movb   $0x0,0x113030
  10088f:	eb e2                	jmp    100873 <putchar+0x53>
  100891:	8d b4 26 00 00 00 00 	lea    0x0(%esi,%eiz,1),%esi
  100898:	a2 30 30 11 00       	mov    %al,0x113030
  10089d:	eb d4                	jmp    100873 <putchar+0x53>
  10089f:	90                   	nop

001008a0 <printf>:
  1008a0:	55                   	push   %ebp
  1008a1:	89 e5                	mov    %esp,%ebp
  1008a3:	57                   	push   %edi
  1008a4:	56                   	push   %esi
  1008a5:	8b 4d 08             	mov    0x8(%ebp),%ecx
  1008a8:	53                   	push   %ebx
  1008a9:	8d b4 26 00 00 00 00 	lea    0x0(%esi,%eiz,1),%esi
  1008b0:	66 0f be 01          	movsbw (%ecx),%ax
  1008b4:	84 c0                	test   %al,%al
  1008b6:	74 2e                	je     1008e6 <printf+0x46>
  1008b8:	0f b6 15 31 30 11 00 	movzbl 0x113031,%edx
  1008bf:	83 c1 01             	add    $0x1,%ecx
  1008c2:	3c 0a                	cmp    $0xa,%al
  1008c4:	74 51                	je     100917 <printf+0x77>
  1008c6:	3c 0d                	cmp    $0xd,%al
  1008c8:	75 26                	jne    1008f0 <printf+0x50>
  1008ca:	31 db                	xor    %ebx,%ebx
  1008cc:	88 1d 30 30 11 00    	mov    %bl,0x113030
  1008d2:	80 fa 18             	cmp    $0x18,%dl
  1008d5:	76 d9                	jbe    1008b0 <printf+0x10>
  1008d7:	c6 05 31 30 11 00 00 	movb   $0x0,0x113031
  1008de:	66 0f be 01          	movsbw (%ecx),%ax
  1008e2:	84 c0                	test   %al,%al
  1008e4:	75 d2                	jne    1008b8 <printf+0x18>
  1008e6:	5b                   	pop    %ebx
  1008e7:	5e                   	pop    %esi
  1008e8:	5f                   	pop    %edi
  1008e9:	5d                   	pop    %ebp
  1008ea:	c3                   	ret
  1008eb:	2e 8d 74 26 00       	lea    %cs:0x0(%esi,%eiz,1),%esi
  1008f0:	0f b6 3d 30 30 11 00 	movzbl 0x113030,%edi
  1008f7:	0f b6 f2             	movzbl %dl,%esi
  1008fa:	80 cc 07             	or     $0x7,%ah
  1008fd:	8d 34 b6             	lea    (%esi,%esi,4),%esi
  100900:	89 fb                	mov    %edi,%ebx
  100902:	c1 e6 04             	shl    $0x4,%esi
  100905:	01 fe                	add    %edi,%esi
  100907:	83 c3 01             	add    $0x1,%ebx
  10090a:	66 89 84 36 00 80 0b 	mov    %ax,0xb8000(%esi,%esi,1)
  100911:	00 
  100912:	80 fb 4f             	cmp    $0x4f,%bl
  100915:	76 b5                	jbe    1008cc <printf+0x2c>
  100917:	83 c2 01             	add    $0x1,%edx
  10091a:	c6 05 30 30 11 00 00 	movb   $0x0,0x113030
  100921:	88 15 31 30 11 00    	mov    %dl,0x113031
  100927:	eb a9                	jmp    1008d2 <printf+0x32>
  100929:	8d b4 26 00 00 00 00 	lea    0x0(%esi,%eiz,1),%esi

00100930 <itoa>:
  100930:	55                   	push   %ebp
  100931:	89 e5                	mov    %esp,%ebp
  100933:	57                   	push   %edi
  100934:	56                   	push   %esi
  100935:	53                   	push   %ebx
  100936:	83 ec 04             	sub    $0x4,%esp
  100939:	8b 45 08             	mov    0x8(%ebp),%eax
  10093c:	8b 5d 0c             	mov    0xc(%ebp),%ebx
  10093f:	85 c0                	test   %eax,%eax
  100941:	0f 84 89 00 00 00    	je     1009d0 <itoa+0xa0>
  100947:	79 7f                	jns    1009c8 <itoa+0x98>
  100949:	83 7d 10 0a          	cmpl   $0xa,0x10(%ebp)
  10094d:	75 79                	jne    1009c8 <itoa+0x98>
  10094f:	f7 d8                	neg    %eax
  100951:	bf 01 00 00 00       	mov    $0x1,%edi
  100956:	89 7d f0             	mov    %edi,-0x10(%ebp)
  100959:	31 c9                	xor    %ecx,%ecx
  10095b:	eb 05                	jmp    100962 <itoa+0x32>
  10095d:	8d 76 00             	lea    0x0(%esi),%esi
  100960:	89 f1                	mov    %esi,%ecx
  100962:	99                   	cltd
  100963:	f7 7d 10             	idivl  0x10(%ebp)
  100966:	8d 72 30             	lea    0x30(%edx),%esi
  100969:	8d 7a 57             	lea    0x57(%edx),%edi
  10096c:	83 fa 0a             	cmp    $0xa,%edx
  10096f:	0f 4c fe             	cmovl  %esi,%edi
  100972:	8d 71 01             	lea    0x1(%ecx),%esi
  100975:	89 fa                	mov    %edi,%edx
  100977:	88 54 33 ff          	mov    %dl,-0x1(%ebx,%esi,1)
  10097b:	85 c0                	test   %eax,%eax
  10097d:	75 e1                	jne    100960 <itoa+0x30>
  10097f:	8b 55 f0             	mov    -0x10(%ebp),%edx
  100982:	85 d2                	test   %edx,%edx
  100984:	74 5a                	je     1009e0 <itoa+0xb0>
  100986:	c6 04 33 2d          	movb   $0x2d,(%ebx,%esi,1)
  10098a:	c6 44 0b 02 00       	movb   $0x0,0x2(%ebx,%ecx,1)
  10098f:	89 f1                	mov    %esi,%ecx
  100991:	8d b4 26 00 00 00 00 	lea    0x0(%esi,%eiz,1),%esi
  100998:	2e 8d b4 26 00 00 00 	lea    %cs:0x0(%esi,%eiz,1),%esi
  10099f:	00 
  1009a0:	0f b6 34 03          	movzbl (%ebx,%eax,1),%esi
  1009a4:	0f b6 14 0b          	movzbl (%ebx,%ecx,1),%edx
  1009a8:	88 14 03             	mov    %dl,(%ebx,%eax,1)
  1009ab:	89 f2                	mov    %esi,%edx
  1009ad:	83 c0 01             	add    $0x1,%eax
  1009b0:	88 14 0b             	mov    %dl,(%ebx,%ecx,1)
  1009b3:	83 e9 01             	sub    $0x1,%ecx
  1009b6:	39 c8                	cmp    %ecx,%eax
  1009b8:	7c e6                	jl     1009a0 <itoa+0x70>
  1009ba:	83 c4 04             	add    $0x4,%esp
  1009bd:	5b                   	pop    %ebx
  1009be:	5e                   	pop    %esi
  1009bf:	5f                   	pop    %edi
  1009c0:	5d                   	pop    %ebp
  1009c1:	c3                   	ret
  1009c2:	8d b6 00 00 00 00    	lea    0x0(%esi),%esi
  1009c8:	31 ff                	xor    %edi,%edi
  1009ca:	eb 8a                	jmp    100956 <itoa+0x26>
  1009cc:	8d 74 26 00          	lea    0x0(%esi,%eiz,1),%esi
  1009d0:	b9 30 00 00 00       	mov    $0x30,%ecx
  1009d5:	66 89 0b             	mov    %cx,(%ebx)
  1009d8:	83 c4 04             	add    $0x4,%esp
  1009db:	5b                   	pop    %ebx
  1009dc:	5e                   	pop    %esi
  1009dd:	5f                   	pop    %edi
  1009de:	5d                   	pop    %ebp
  1009df:	c3                   	ret
  1009e0:	c6 04 33 00          	movb   $0x0,(%ebx,%esi,1)
  1009e4:	85 c9                	test   %ecx,%ecx
  1009e6:	75 b8                	jne    1009a0 <itoa+0x70>
  1009e8:	eb d0                	jmp    1009ba <itoa+0x8a>
  1009ea:	66 90                	xchg   %ax,%ax
  1009ec:	66 90                	xchg   %ax,%ax
  1009ee:	66 90                	xchg   %ax,%ax
  1009f0:	66 90                	xchg   %ax,%ax
  1009f2:	66 90                	xchg   %ax,%ax
  1009f4:	66 90                	xchg   %ax,%ax
  1009f6:	66 90                	xchg   %ax,%ax
  1009f8:	66 90                	xchg   %ax,%ax
  1009fa:	66 90                	xchg   %ax,%ax
  1009fc:	66 90                	xchg   %ax,%ax
  1009fe:	66 90                	xchg   %ax,%ax

00100a00 <terminal_newline>:
  100a00:	0f b6 05 33 30 11 00 	movzbl 0x113033,%eax
  100a07:	c6 05 32 30 11 00 00 	movb   $0x0,0x113032
  100a0e:	3c 18                	cmp    $0x18,%al
  100a10:	74 09                	je     100a1b <terminal_newline+0x1b>
  100a12:	83 c0 01             	add    $0x1,%eax
  100a15:	a2 33 30 11 00       	mov    %al,0x113033
  100a1a:	c3                   	ret
  100a1b:	55                   	push   %ebp
  100a1c:	b9 50 00 00 00       	mov    $0x50,%ecx
  100a21:	b8 a0 80 0b 00       	mov    $0xb80a0,%eax
  100a26:	89 e5                	mov    %esp,%ebp
  100a28:	53                   	push   %ebx
  100a29:	8d b4 26 00 00 00 00 	lea    0x0(%esi,%eiz,1),%esi
  100a30:	8d 90 a0 00 00 00    	lea    0xa0(%eax),%edx
  100a36:	66 90                	xchg   %ax,%ax
  100a38:	2e 8d b4 26 00 00 00 	lea    %cs:0x0(%esi,%eiz,1),%esi
  100a3f:	00 
  100a40:	0f b7 18             	movzwl (%eax),%ebx
  100a43:	83 c0 02             	add    $0x2,%eax
  100a46:	66 89 98 5e ff ff ff 	mov    %bx,-0xa2(%eax)
  100a4d:	39 c2                	cmp    %eax,%edx
  100a4f:	75 ef                	jne    100a40 <terminal_newline+0x40>
  100a51:	83 c1 50             	add    $0x50,%ecx
  100a54:	81 f9 d0 07 00 00    	cmp    $0x7d0,%ecx
  100a5a:	74 04                	je     100a60 <terminal_newline+0x60>
  100a5c:	89 d0                	mov    %edx,%eax
  100a5e:	eb d0                	jmp    100a30 <terminal_newline+0x30>
  100a60:	b8 00 8f 0b 00       	mov    $0xb8f00,%eax
  100a65:	eb 19                	jmp    100a80 <terminal_newline+0x80>
  100a67:	90                   	nop
  100a68:	2e 8d b4 26 00 00 00 	lea    %cs:0x0(%esi,%eiz,1),%esi
  100a6f:	00 
  100a70:	2e 8d b4 26 00 00 00 	lea    %cs:0x0(%esi,%eiz,1),%esi
  100a77:	00 
  100a78:	2e 8d b4 26 00 00 00 	lea    %cs:0x0(%esi,%eiz,1),%esi
  100a7f:	00 
  100a80:	ba 20 0f 00 00       	mov    $0xf20,%edx
  100a85:	b9 20 0f 00 00       	mov    $0xf20,%ecx
  100a8a:	83 c0 04             	add    $0x4,%eax
  100a8d:	66 89 50 fc          	mov    %dx,-0x4(%eax)
  100a91:	66 89 48 fe          	mov    %cx,-0x2(%eax)
  100a95:	3d a0 8f 0b 00       	cmp    $0xb8fa0,%eax
  100a9a:	75 e4                	jne    100a80 <terminal_newline+0x80>
  100a9c:	8b 5d fc             	mov    -0x4(%ebp),%ebx
  100a9f:	c9                   	leave
  100aa0:	c3                   	ret
  100aa1:	8d b4 26 00 00 00 00 	lea    0x0(%esi,%eiz,1),%esi
  100aa8:	2e 8d b4 26 00 00 00 	lea    %cs:0x0(%esi,%eiz,1),%esi
  100aaf:	00 

00100ab0 <terminal_putchar>:
  100ab0:	55                   	push   %ebp
  100ab1:	89 e5                	mov    %esp,%ebp
  100ab3:	53                   	push   %ebx
  100ab4:	83 ec 04             	sub    $0x4,%esp
  100ab7:	8b 45 08             	mov    0x8(%ebp),%eax
  100aba:	3c 0a                	cmp    $0xa,%al
  100abc:	74 42                	je     100b00 <terminal_putchar+0x50>
  100abe:	7f 28                	jg     100ae8 <terminal_putchar+0x38>
  100ac0:	3c 08                	cmp    $0x8,%al
  100ac2:	74 5c                	je     100b20 <terminal_putchar+0x70>
  100ac4:	bb 04 00 00 00       	mov    $0x4,%ebx
  100ac9:	3c 09                	cmp    $0x9,%al
  100acb:	75 38                	jne    100b05 <terminal_putchar+0x55>
  100acd:	83 ec 0c             	sub    $0xc,%esp
  100ad0:	6a 20                	push   $0x20
  100ad2:	e8 d9 ff ff ff       	call   100ab0 <terminal_putchar>
  100ad7:	83 c4 10             	add    $0x10,%esp
  100ada:	83 eb 01             	sub    $0x1,%ebx
  100add:	75 ee                	jne    100acd <terminal_putchar+0x1d>
  100adf:	8b 5d fc             	mov    -0x4(%ebp),%ebx
  100ae2:	c9                   	leave
  100ae3:	c3                   	ret
  100ae4:	8d 74 26 00          	lea    0x0(%esi,%eiz,1),%esi
  100ae8:	3c 0d                	cmp    $0xd,%al
  100aea:	75 74                	jne    100b60 <terminal_putchar+0xb0>
  100aec:	c6 05 32 30 11 00 00 	movb   $0x0,0x113032
  100af3:	8b 5d fc             	mov    -0x4(%ebp),%ebx
  100af6:	c9                   	leave
  100af7:	c3                   	ret
  100af8:	2e 8d b4 26 00 00 00 	lea    %cs:0x0(%esi,%eiz,1),%esi
  100aff:	00 
  100b00:	e8 fb fe ff ff       	call   100a00 <terminal_newline>
  100b05:	0f b6 15 32 30 11 00 	movzbl 0x113032,%edx
  100b0c:	80 fa 50             	cmp    $0x50,%dl
  100b0f:	75 ce                	jne    100adf <terminal_putchar+0x2f>
  100b11:	8b 5d fc             	mov    -0x4(%ebp),%ebx
  100b14:	c9                   	leave
  100b15:	e9 e6 fe ff ff       	jmp    100a00 <terminal_newline>
  100b1a:	8d b6 00 00 00 00    	lea    0x0(%esi),%esi
  100b20:	0f b6 15 32 30 11 00 	movzbl 0x113032,%edx
  100b27:	0f b6 05 33 30 11 00 	movzbl 0x113033,%eax
  100b2e:	84 d2                	test   %dl,%dl
  100b30:	75 6e                	jne    100ba0 <terminal_putchar+0xf0>
  100b32:	84 c0                	test   %al,%al
  100b34:	74 a9                	je     100adf <terminal_putchar+0x2f>
  100b36:	83 e8 01             	sub    $0x1,%eax
  100b39:	ba 20 0f 00 00       	mov    $0xf20,%edx
  100b3e:	c6 05 32 30 11 00 4f 	movb   $0x4f,0x113032
  100b45:	a2 33 30 11 00       	mov    %al,0x113033
  100b4a:	0f b6 c0             	movzbl %al,%eax
  100b4d:	8d 04 80             	lea    (%eax,%eax,4),%eax
  100b50:	c1 e0 04             	shl    $0x4,%eax
  100b53:	66 89 94 00 9e 80 0b 	mov    %dx,0xb809e(%eax,%eax,1)
  100b5a:	00 
  100b5b:	eb 82                	jmp    100adf <terminal_putchar+0x2f>
  100b5d:	8d 76 00             	lea    0x0(%esi),%esi
  100b60:	0f b6 15 32 30 11 00 	movzbl 0x113032,%edx
  100b67:	3c 1f                	cmp    $0x1f,%al
  100b69:	7e a1                	jle    100b0c <terminal_putchar+0x5c>
  100b6b:	0f b6 0d 33 30 11 00 	movzbl 0x113033,%ecx
  100b72:	0f b6 da             	movzbl %dl,%ebx
  100b75:	66 98                	cbtw
  100b77:	83 c2 01             	add    $0x1,%edx
  100b7a:	80 cc 0f             	or     $0xf,%ah
  100b7d:	88 15 32 30 11 00    	mov    %dl,0x113032
  100b83:	8d 0c 89             	lea    (%ecx,%ecx,4),%ecx
  100b86:	c1 e1 04             	shl    $0x4,%ecx
  100b89:	01 d9                	add    %ebx,%ecx
  100b8b:	66 89 84 09 00 80 0b 	mov    %ax,0xb8000(%ecx,%ecx,1)
  100b92:	00 
  100b93:	e9 74 ff ff ff       	jmp    100b0c <terminal_putchar+0x5c>
  100b98:	2e 8d b4 26 00 00 00 	lea    %cs:0x0(%esi,%eiz,1),%esi
  100b9f:	00 
  100ba0:	83 ea 01             	sub    $0x1,%edx
  100ba3:	8d 04 80             	lea    (%eax,%eax,4),%eax
  100ba6:	0f b6 ca             	movzbl %dl,%ecx
  100ba9:	c1 e0 04             	shl    $0x4,%eax
  100bac:	88 15 32 30 11 00    	mov    %dl,0x113032
  100bb2:	01 c8                	add    %ecx,%eax
  100bb4:	b9 20 0f 00 00       	mov    $0xf20,%ecx
  100bb9:	66 89 8c 00 00 80 0b 	mov    %cx,0xb8000(%eax,%eax,1)
  100bc0:	00 
  100bc1:	e9 46 ff ff ff       	jmp    100b0c <terminal_putchar+0x5c>
  100bc6:	66 90                	xchg   %ax,%ax
  100bc8:	2e 8d b4 26 00 00 00 	lea    %cs:0x0(%esi,%eiz,1),%esi
  100bcf:	00 

00100bd0 <terminal_write>:
  100bd0:	55                   	push   %ebp
  100bd1:	89 e5                	mov    %esp,%ebp
  100bd3:	56                   	push   %esi
  100bd4:	53                   	push   %ebx
  100bd5:	8b 75 0c             	mov    0xc(%ebp),%esi
  100bd8:	85 f6                	test   %esi,%esi
  100bda:	74 2a                	je     100c06 <terminal_write+0x36>
  100bdc:	8b 5d 08             	mov    0x8(%ebp),%ebx
  100bdf:	01 de                	add    %ebx,%esi
  100be1:	8d b4 26 00 00 00 00 	lea    0x0(%esi,%eiz,1),%esi
  100be8:	2e 8d b4 26 00 00 00 	lea    %cs:0x0(%esi,%eiz,1),%esi
  100bef:	00 
  100bf0:	0f be 03             	movsbl (%ebx),%eax
  100bf3:	83 ec 0c             	sub    $0xc,%esp
  100bf6:	83 c3 01             	add    $0x1,%ebx
  100bf9:	50                   	push   %eax
  100bfa:	e8 b1 fe ff ff       	call   100ab0 <terminal_putchar>
  100bff:	83 c4 10             	add    $0x10,%esp
  100c02:	39 f3                	cmp    %esi,%ebx
  100c04:	75 ea                	jne    100bf0 <terminal_write+0x20>
  100c06:	8d 65 f8             	lea    -0x8(%ebp),%esp
  100c09:	5b                   	pop    %ebx
  100c0a:	5e                   	pop    %esi
  100c0b:	5d                   	pop    %ebp
  100c0c:	c3                   	ret
  100c0d:	8d 76 00             	lea    0x0(%esi),%esi

00100c10 <terminal_writestring>:
  100c10:	55                   	push   %ebp
  100c11:	89 e5                	mov    %esp,%ebp
  100c13:	53                   	push   %ebx
  100c14:	83 ec 04             	sub    $0x4,%esp
  100c17:	8b 5d 08             	mov    0x8(%ebp),%ebx
  100c1a:	0f be 03             	movsbl (%ebx),%eax
  100c1d:	84 c0                	test   %al,%al
  100c1f:	74 25                	je     100c46 <terminal_writestring+0x36>
  100c21:	8d b4 26 00 00 00 00 	lea    0x0(%esi,%eiz,1),%esi
  100c28:	2e 8d b4 26 00 00 00 	lea    %cs:0x0(%esi,%eiz,1),%esi
  100c2f:	00 
  100c30:	83 ec 0c             	sub    $0xc,%esp
  100c33:	83 c3 01             	add    $0x1,%ebx
  100c36:	50                   	push   %eax
  100c37:	e8 74 fe ff ff       	call   100ab0 <terminal_putchar>
  100c3c:	0f be 03             	movsbl (%ebx),%eax
  100c3f:	83 c4 10             	add    $0x10,%esp
  100c42:	84 c0                	test   %al,%al
  100c44:	75 ea                	jne    100c30 <terminal_writestring+0x20>
  100c46:	8b 5d fc             	mov    -0x4(%ebp),%ebx
  100c49:	c9                   	leave
  100c4a:	c3                   	ret
  100c4b:	2e 8d 74 26 00       	lea    %cs:0x0(%esi,%eiz,1),%esi

00100c50 <terminal_clear>:
  100c50:	ba a0 80 0b 00       	mov    $0xb80a0,%edx
  100c55:	8d 76 00             	lea    0x0(%esi),%esi
  100c58:	2e 8d b4 26 00 00 00 	lea    %cs:0x0(%esi,%eiz,1),%esi
  100c5f:	00 
  100c60:	8d 82 60 ff ff ff    	lea    -0xa0(%edx),%eax
  100c66:	eb 18                	jmp    100c80 <terminal_clear+0x30>
  100c68:	2e 8d b4 26 00 00 00 	lea    %cs:0x0(%esi,%eiz,1),%esi
  100c6f:	00 
  100c70:	2e 8d b4 26 00 00 00 	lea    %cs:0x0(%esi,%eiz,1),%esi
  100c77:	00 
  100c78:	2e 8d b4 26 00 00 00 	lea    %cs:0x0(%esi,%eiz,1),%esi
  100c7f:	00 
  100c80:	b9 20 0f 00 00       	mov    $0xf20,%ecx
  100c85:	83 c0 04             	add    $0x4,%eax
  100c88:	66 89 48 fc          	mov    %cx,-0x4(%eax)
  100c8c:	b9 20 0f 00 00       	mov    $0xf20,%ecx
  100c91:	66 89 48 fe          	mov    %cx,-0x2(%eax)
  100c95:	39 d0                	cmp    %edx,%eax
  100c97:	75 e7                	jne    100c80 <terminal_clear+0x30>
  100c99:	8d 90 a0 00 00 00    	lea    0xa0(%eax),%edx
  100c9f:	3d a0 8f 0b 00       	cmp    $0xb8fa0,%eax
  100ca4:	75 ba                	jne    100c60 <terminal_clear+0x10>
  100ca6:	c6 05 33 30 11 00 00 	movb   $0x0,0x113033
  100cad:	c6 05 32 30 11 00 00 	movb   $0x0,0x113032
  100cb4:	c3                   	ret
  100cb5:	8d 76 00             	lea    0x0(%esi),%esi
  100cb8:	2e 8d b4 26 00 00 00 	lea    %cs:0x0(%esi,%eiz,1),%esi
  100cbf:	00 

00100cc0 <terminal_setcursor>:
  100cc0:	55                   	push   %ebp
  100cc1:	89 e5                	mov    %esp,%ebp
  100cc3:	8b 45 08             	mov    0x8(%ebp),%eax
  100cc6:	8b 55 0c             	mov    0xc(%ebp),%edx
  100cc9:	3c 18                	cmp    $0x18,%al
  100ccb:	77 10                	ja     100cdd <terminal_setcursor+0x1d>
  100ccd:	80 fa 4f             	cmp    $0x4f,%dl
  100cd0:	77 0b                	ja     100cdd <terminal_setcursor+0x1d>
  100cd2:	a2 33 30 11 00       	mov    %al,0x113033
  100cd7:	88 15 32 30 11 00    	mov    %dl,0x113032
  100cdd:	5d                   	pop    %ebp
  100cde:	c3                   	ret
  100cdf:	90                   	nop

00100ce0 <terminal_initialize>:
  100ce0:	e9 6b ff ff ff       	jmp    100c50 <terminal_clear>
  100ce5:	8d 76 00             	lea    0x0(%esi),%esi
  100ce8:	2e 8d b4 26 00 00 00 	lea    %cs:0x0(%esi,%eiz,1),%esi
  100cef:	00 

00100cf0 <terminal_writeat>:
  100cf0:	55                   	push   %ebp
  100cf1:	89 e5                	mov    %esp,%ebp
  100cf3:	57                   	push   %edi
  100cf4:	56                   	push   %esi
  100cf5:	53                   	push   %ebx
  100cf6:	83 ec 04             	sub    $0x4,%esp
  100cf9:	8b 55 08             	mov    0x8(%ebp),%edx
  100cfc:	8b 75 0c             	mov    0xc(%ebp),%esi
  100cff:	8b 7d 10             	mov    0x10(%ebp),%edi
  100d02:	80 fa 18             	cmp    $0x18,%dl
  100d05:	77 5d                	ja     100d64 <terminal_writeat+0x74>
  100d07:	89 f0                	mov    %esi,%eax
  100d09:	3c 4f                	cmp    $0x4f,%al
  100d0b:	77 57                	ja     100d64 <terminal_writeat+0x74>
  100d0d:	0f b6 07             	movzbl (%edi),%eax
  100d10:	84 c0                	test   %al,%al
  100d12:	74 50                	je     100d64 <terminal_writeat+0x74>
  100d14:	0f b6 d2             	movzbl %dl,%edx
  100d17:	89 f3                	mov    %esi,%ebx
  100d19:	8d 14 92             	lea    (%edx,%edx,4),%edx
  100d1c:	0f b6 cb             	movzbl %bl,%ecx
  100d1f:	c1 e2 04             	shl    $0x4,%edx
  100d22:	01 ca                	add    %ecx,%edx
  100d24:	8d 8c 12 00 80 0b 00 	lea    0xb8000(%edx,%edx,1),%ecx
  100d2b:	89 fa                	mov    %edi,%edx
  100d2d:	89 4d f0             	mov    %ecx,-0x10(%ebp)
  100d30:	eb 12                	jmp    100d44 <terminal_writeat+0x54>
  100d32:	8d b6 00 00 00 00    	lea    0x0(%esi),%esi
  100d38:	2e 8d b4 26 00 00 00 	lea    %cs:0x0(%esi,%eiz,1),%esi
  100d3f:	00 
  100d40:	84 c0                	test   %al,%al
  100d42:	74 20                	je     100d64 <terminal_writeat+0x74>
  100d44:	83 45 f0 02          	addl   $0x2,-0x10(%ebp)
  100d48:	8b 5d f0             	mov    -0x10(%ebp),%ebx
  100d4b:	83 c2 01             	add    $0x1,%edx
  100d4e:	80 cc 0f             	or     $0xf,%ah
  100d51:	8d 0c 16             	lea    (%esi,%edx,1),%ecx
  100d54:	66 89 43 fe          	mov    %ax,-0x2(%ebx)
  100d58:	89 fb                	mov    %edi,%ebx
  100d5a:	0f b6 02             	movzbl (%edx),%eax
  100d5d:	29 d9                	sub    %ebx,%ecx
  100d5f:	80 f9 50             	cmp    $0x50,%cl
  100d62:	75 dc                	jne    100d40 <terminal_writeat+0x50>
  100d64:	83 c4 04             	add    $0x4,%esp
  100d67:	5b                   	pop    %ebx
  100d68:	5e                   	pop    %esi
  100d69:	5f                   	pop    %edi
  100d6a:	5d                   	pop    %ebp
  100d6b:	c3                   	ret
  100d6c:	66 90                	xchg   %ax,%ax
  100d6e:	66 90                	xchg   %ax,%ax

00100d70 <gdt_init>:
  100d70:	55                   	push   %ebp
  100d71:	89 e5                	mov    %esp,%ebp
  100d73:	56                   	push   %esi
  100d74:	be 40 30 11 00       	mov    $0x113040,%esi
  100d79:	53                   	push   %ebx
  100d7a:	bb a8 30 11 00       	mov    $0x1130a8,%ebx
  100d7f:	83 ec 0c             	sub    $0xc,%esp
  100d82:	68 43 ba 10 00       	push   $0x10ba43
  100d87:	e8 84 fe ff ff       	call   100c10 <terminal_writestring>
  100d8c:	83 c4 0c             	add    $0xc,%esp
  100d8f:	b8 2f 00 00 00       	mov    $0x2f,%eax
  100d94:	c7 05 aa 30 11 00 c0 	movl   $0x1130c0,0x1130aa
  100d9b:	30 11 00 
  100d9e:	66 a3 a8 30 11 00    	mov    %ax,0x1130a8
  100da4:	c7 05 c0 30 11 00 00 	movl   $0x0,0x1130c0
  100dab:	00 00 00 
  100dae:	c7 05 c4 30 11 00 00 	movl   $0x0,0x1130c4
  100db5:	00 00 00 
  100db8:	c7 05 c8 30 11 00 ff 	movl   $0xffff,0x1130c8
  100dbf:	ff 00 00 
  100dc2:	c7 05 cc 30 11 00 00 	movl   $0xcf9a00,0x1130cc
  100dc9:	9a cf 00 
  100dcc:	c7 05 d0 30 11 00 ff 	movl   $0xffff,0x1130d0
  100dd3:	ff 00 00 
  100dd6:	c7 05 d4 30 11 00 00 	movl   $0xcf9200,0x1130d4
  100ddd:	92 cf 00 
  100de0:	c7 05 d8 30 11 00 ff 	movl   $0xffff,0x1130d8
  100de7:	ff 00 00 
  100dea:	c7 05 dc 30 11 00 00 	movl   $0xcffa00,0x1130dc
  100df1:	fa cf 00 
  100df4:	c7 05 e0 30 11 00 ff 	movl   $0xffff,0x1130e0
  100dfb:	ff 00 00 
  100dfe:	c7 05 e4 30 11 00 00 	movl   $0xcff200,0x1130e4
  100e05:	f2 cf 00 
  100e08:	6a 68                	push   $0x68
  100e0a:	6a 00                	push   $0x0
  100e0c:	56                   	push   %esi
  100e0d:	e8 8e f6 ff ff       	call   1004a0 <memset>
  100e12:	89 f0                	mov    %esi,%eax
  100e14:	66 89 1d e8 30 11 00 	mov    %bx,0x1130e8
  100e1b:	c1 eb 10             	shr    $0x10,%ebx
  100e1e:	c1 e8 10             	shr    $0x10,%eax
  100e21:	ba 68 00 00 00       	mov    $0x68,%edx
  100e26:	83 e3 0f             	and    $0xf,%ebx
  100e29:	66 89 35 ea 30 11 00 	mov    %si,0x1130ea
  100e30:	a2 ec 30 11 00       	mov    %al,0x1130ec
  100e35:	89 f0                	mov    %esi,%eax
  100e37:	c1 e8 18             	shr    $0x18,%eax
  100e3a:	66 89 15 a6 30 11 00 	mov    %dx,0x1130a6
  100e41:	a2 ef 30 11 00       	mov    %al,0x1130ef
  100e46:	88 1d ee 30 11 00    	mov    %bl,0x1130ee
  100e4c:	c7 05 48 30 11 00 10 	movl   $0x10,0x113048
  100e53:	00 00 00 
  100e56:	c7 05 44 30 11 00 00 	movl   $0x10000,0x113044
  100e5d:	00 01 00 
  100e60:	c6 05 ed 30 11 00 89 	movb   $0x89,0x1130ed
  100e67:	c7 04 24 a8 30 11 00 	movl   $0x1130a8,(%esp)
  100e6e:	e8 2d 00 00 00       	call   100ea0 <gdt_flush>
  100e73:	e8 45 00 00 00       	call   100ebd <tss_flush>
  100e78:	c7 04 24 58 ba 10 00 	movl   $0x10ba58,(%esp)
  100e7f:	e8 8c fd ff ff       	call   100c10 <terminal_writestring>
  100e84:	83 c4 10             	add    $0x10,%esp
  100e87:	8d 65 f8             	lea    -0x8(%ebp),%esp
  100e8a:	5b                   	pop    %ebx
  100e8b:	5e                   	pop    %esi
  100e8c:	5d                   	pop    %ebp
  100e8d:	c3                   	ret
  100e8e:	66 90                	xchg   %ax,%ax

00100e90 <tss_set_esp0>:
  100e90:	55                   	push   %ebp
  100e91:	89 e5                	mov    %esp,%ebp
  100e93:	8b 45 08             	mov    0x8(%ebp),%eax
  100e96:	5d                   	pop    %ebp
  100e97:	a3 44 30 11 00       	mov    %eax,0x113044
  100e9c:	c3                   	ret
  100e9d:	66 90                	xchg   %ax,%ax
  100e9f:	90                   	nop

00100ea0 <gdt_flush>:
  100ea0:	8b 44 24 04          	mov    0x4(%esp),%eax
  100ea4:	0f 01 10             	lgdtl  (%eax)
  100ea7:	66 b8 10 00          	mov    $0x10,%ax
  100eab:	8e d8                	mov    %eax,%ds
  100ead:	8e c0                	mov    %eax,%es
  100eaf:	8e e0                	mov    %eax,%fs
  100eb1:	8e e8                	mov    %eax,%gs
  100eb3:	8e d0                	mov    %eax,%ss
  100eb5:	ea bc 0e 10 00 08 00 	ljmp   $0x8,$0x100ebc

00100ebc <gdt_flush.flush>:
  100ebc:	c3                   	ret

00100ebd <tss_flush>:
  100ebd:	66 b8 28 00          	mov    $0x28,%ax
  100ec1:	0f 00 d8             	ltr    %eax
  100ec4:	c3                   	ret
  100ec5:	66 90                	xchg   %ax,%ax
  100ec7:	66 90                	xchg   %ax,%ax
  100ec9:	66 90                	xchg   %ax,%ax
  100ecb:	66 90                	xchg   %ax,%ax
  100ecd:	66 90                	xchg   %ax,%ax
  100ecf:	90                   	nop

00100ed0 <pic_remap>:
  100ed0:	55                   	push   %ebp
  100ed1:	89 e5                	mov    %esp,%ebp
  100ed3:	e4 21                	in     $0x21,%al
  100ed5:	89 c1                	mov    %eax,%ecx
  100ed7:	e4 a1                	in     $0xa1,%al
  100ed9:	89 c2                	mov    %eax,%edx
  100edb:	b8 11 00 00 00       	mov    $0x11,%eax
  100ee0:	e6 20                	out    %al,$0x20
  100ee2:	e6 a0                	out    %al,$0xa0
  100ee4:	0f b6 45 08          	movzbl 0x8(%ebp),%eax
  100ee8:	e6 21                	out    %al,$0x21
  100eea:	0f b6 45 0c          	movzbl 0xc(%ebp),%eax
  100eee:	e6 a1                	out    %al,$0xa1
  100ef0:	b8 04 00 00 00       	mov    $0x4,%eax
  100ef5:	e6 21                	out    %al,$0x21
  100ef7:	b8 02 00 00 00       	mov    $0x2,%eax
  100efc:	e6 a1                	out    %al,$0xa1
  100efe:	b8 01 00 00 00       	mov    $0x1,%eax
  100f03:	e6 21                	out    %al,$0x21
  100f05:	e6 a1                	out    %al,$0xa1
  100f07:	89 c8                	mov    %ecx,%eax
  100f09:	e6 21                	out    %al,$0x21
  100f0b:	89 d0                	mov    %edx,%eax
  100f0d:	e6 a1                	out    %al,$0xa1
  100f0f:	5d                   	pop    %ebp
  100f10:	c3                   	ret
  100f11:	8d b4 26 00 00 00 00 	lea    0x0(%esi,%eiz,1),%esi
  100f18:	2e 8d b4 26 00 00 00 	lea    %cs:0x0(%esi,%eiz,1),%esi
  100f1f:	00 

00100f20 <pic_send_eoi>:
  100f20:	55                   	push   %ebp
  100f21:	89 e5                	mov    %esp,%ebp
  100f23:	80 7d 08 07          	cmpb   $0x7,0x8(%ebp)
  100f27:	76 07                	jbe    100f30 <pic_send_eoi+0x10>
  100f29:	b8 20 00 00 00       	mov    $0x20,%eax
  100f2e:	e6 a0                	out    %al,$0xa0
  100f30:	b8 20 00 00 00       	mov    $0x20,%eax
  100f35:	e6 20                	out    %al,$0x20
  100f37:	5d                   	pop    %ebp
  100f38:	c3                   	ret
  100f39:	66 90                	xchg   %ax,%ax
  100f3b:	66 90                	xchg   %ax,%ax
  100f3d:	66 90                	xchg   %ax,%ax
  100f3f:	90                   	nop

00100f40 <idt_set_gate>:
  100f40:	55                   	push   %ebp
  100f41:	89 e5                	mov    %esp,%ebp
  100f43:	53                   	push   %ebx
  100f44:	8b 4d 10             	mov    0x10(%ebp),%ecx
  100f47:	0f b6 45 08          	movzbl 0x8(%ebp),%eax
  100f4b:	8b 5d 14             	mov    0x14(%ebp),%ebx
  100f4e:	8b 55 0c             	mov    0xc(%ebp),%edx
  100f51:	66 89 0c c5 22 31 11 	mov    %cx,0x113122(,%eax,8)
  100f58:	00 
  100f59:	0f b7 0d 20 dc 10 00 	movzwl 0x10dc20,%ecx
  100f60:	66 89 14 c5 20 31 11 	mov    %dx,0x113120(,%eax,8)
  100f67:	00 
  100f68:	c1 ea 10             	shr    $0x10,%edx
  100f6b:	88 dd                	mov    %bl,%ch
  100f6d:	66 89 14 c5 26 31 11 	mov    %dx,0x113126(,%eax,8)
  100f74:	00 
  100f75:	66 89 0c c5 24 31 11 	mov    %cx,0x113124(,%eax,8)
  100f7c:	00 
  100f7d:	8b 5d fc             	mov    -0x4(%ebp),%ebx
  100f80:	c9                   	leave
  100f81:	c3                   	ret
  100f82:	8d b6 00 00 00 00    	lea    0x0(%esi),%esi
  100f88:	2e 8d b4 26 00 00 00 	lea    %cs:0x0(%esi,%eiz,1),%esi
  100f8f:	00 

00100f90 <idt_install>:
  100f90:	55                   	push   %ebp
  100f91:	b8 ff 07 00 00       	mov    $0x7ff,%eax
  100f96:	89 e5                	mov    %esp,%ebp
  100f98:	83 ec 08             	sub    $0x8,%esp
  100f9b:	0f b7 15 20 dc 10 00 	movzwl 0x10dc20,%edx
  100fa2:	c7 05 02 31 11 00 20 	movl   $0x113120,0x113102
  100fa9:	31 11 00 
  100fac:	66 a3 00 31 11 00    	mov    %ax,0x113100
  100fb2:	31 c0                	xor    %eax,%eax
  100fb4:	8d 74 26 00          	lea    0x0(%esi,%eiz,1),%esi
  100fb8:	2e 8d b4 26 00 00 00 	lea    %cs:0x0(%esi,%eiz,1),%esi
  100fbf:	00 
  100fc0:	31 c9                	xor    %ecx,%ecx
  100fc2:	66 89 14 c5 24 31 11 	mov    %dx,0x113124(,%eax,8)
  100fc9:	00 
  100fca:	c7 04 c5 20 31 11 00 	movl   $0x0,0x113120(,%eax,8)
  100fd1:	00 00 00 00 
  100fd5:	66 89 0c c5 26 31 11 	mov    %cx,0x113126(,%eax,8)
  100fdc:	00 
  100fdd:	83 c0 01             	add    $0x1,%eax
  100fe0:	3d 00 01 00 00       	cmp    $0x100,%eax
  100fe5:	75 d9                	jne    100fc0 <idt_install+0x30>
  100fe7:	e8 84 00 00 00       	call   101070 <isr_install>
  100fec:	e8 1f 06 00 00       	call   101610 <irq_install>
  100ff1:	83 ec 0c             	sub    $0xc,%esp
  100ff4:	68 00 31 11 00       	push   $0x113100
  100ff9:	e8 92 09 00 00       	call   101990 <idt_flush>
  100ffe:	83 c4 10             	add    $0x10,%esp
  101001:	c9                   	leave
  101002:	c3                   	ret
  101003:	66 90                	xchg   %ax,%ax
  101005:	66 90                	xchg   %ax,%ax
  101007:	66 90                	xchg   %ax,%ax
  101009:	66 90                	xchg   %ax,%ax
  10100b:	66 90                	xchg   %ax,%ax
  10100d:	66 90                	xchg   %ax,%ax
  10100f:	66 90                	xchg   %ax,%ax
  101011:	66 90                	xchg   %ax,%ax
  101013:	66 90                	xchg   %ax,%ax
  101015:	66 90                	xchg   %ax,%ax
  101017:	66 90                	xchg   %ax,%ax
  101019:	66 90                	xchg   %ax,%ax
  10101b:	66 90                	xchg   %ax,%ax
  10101d:	66 90                	xchg   %ax,%ax
  10101f:	90                   	nop

00101020 <hex_to_str>:
  101020:	55                   	push   %ebp
  101021:	b9 1c 00 00 00       	mov    $0x1c,%ecx
  101026:	89 e5                	mov    %esp,%ebp
  101028:	56                   	push   %esi
  101029:	89 d6                	mov    %edx,%esi
  10102b:	53                   	push   %ebx
  10102c:	89 c3                	mov    %eax,%ebx
  10102e:	b8 30 78 00 00       	mov    $0x7830,%eax
  101033:	66 89 02             	mov    %ax,(%edx)
  101036:	8d 42 02             	lea    0x2(%edx),%eax
  101039:	8d b4 26 00 00 00 00 	lea    0x0(%esi,%eiz,1),%esi
  101040:	89 da                	mov    %ebx,%edx
  101042:	83 c0 01             	add    $0x1,%eax
  101045:	d3 ea                	shr    %cl,%edx
  101047:	83 e9 04             	sub    $0x4,%ecx
  10104a:	83 e2 0f             	and    $0xf,%edx
  10104d:	0f b6 92 6a ba 10 00 	movzbl 0x10ba6a(%edx),%edx
  101054:	88 50 ff             	mov    %dl,-0x1(%eax)
  101057:	83 f9 fc             	cmp    $0xfffffffc,%ecx
  10105a:	75 e4                	jne    101040 <hex_to_str+0x20>
  10105c:	c6 46 0a 00          	movb   $0x0,0xa(%esi)
  101060:	5b                   	pop    %ebx
  101061:	5e                   	pop    %esi
  101062:	5d                   	pop    %ebp
  101063:	c3                   	ret
  101064:	8d 74 26 00          	lea    0x0(%esi,%eiz,1),%esi
  101068:	2e 8d b4 26 00 00 00 	lea    %cs:0x0(%esi,%eiz,1),%esi
  10106f:	00 

00101070 <isr_install>:
  101070:	55                   	push   %ebp
  101071:	89 e5                	mov    %esp,%ebp
  101073:	83 ec 08             	sub    $0x8,%esp
  101076:	68 8e 00 00 00       	push   $0x8e
  10107b:	6a 08                	push   $0x8
  10107d:	68 a0 17 10 00       	push   $0x1017a0
  101082:	6a 00                	push   $0x0
  101084:	e8 b7 fe ff ff       	call   100f40 <idt_set_gate>
  101089:	68 8e 00 00 00       	push   $0x8e
  10108e:	6a 08                	push   $0x8
  101090:	68 aa 17 10 00       	push   $0x1017aa
  101095:	6a 01                	push   $0x1
  101097:	e8 a4 fe ff ff       	call   100f40 <idt_set_gate>
  10109c:	83 c4 20             	add    $0x20,%esp
  10109f:	68 8e 00 00 00       	push   $0x8e
  1010a4:	6a 08                	push   $0x8
  1010a6:	68 b4 17 10 00       	push   $0x1017b4
  1010ab:	6a 02                	push   $0x2
  1010ad:	e8 8e fe ff ff       	call   100f40 <idt_set_gate>
  1010b2:	68 8e 00 00 00       	push   $0x8e
  1010b7:	6a 08                	push   $0x8
  1010b9:	68 be 17 10 00       	push   $0x1017be
  1010be:	6a 03                	push   $0x3
  1010c0:	e8 7b fe ff ff       	call   100f40 <idt_set_gate>
  1010c5:	83 c4 20             	add    $0x20,%esp
  1010c8:	68 8e 00 00 00       	push   $0x8e
  1010cd:	6a 08                	push   $0x8
  1010cf:	68 c8 17 10 00       	push   $0x1017c8
  1010d4:	6a 04                	push   $0x4
  1010d6:	e8 65 fe ff ff       	call   100f40 <idt_set_gate>
  1010db:	68 8e 00 00 00       	push   $0x8e
  1010e0:	6a 08                	push   $0x8
  1010e2:	68 d2 17 10 00       	push   $0x1017d2
  1010e7:	6a 05                	push   $0x5
  1010e9:	e8 52 fe ff ff       	call   100f40 <idt_set_gate>
  1010ee:	83 c4 20             	add    $0x20,%esp
  1010f1:	68 8e 00 00 00       	push   $0x8e
  1010f6:	6a 08                	push   $0x8
  1010f8:	68 dc 17 10 00       	push   $0x1017dc
  1010fd:	6a 06                	push   $0x6
  1010ff:	e8 3c fe ff ff       	call   100f40 <idt_set_gate>
  101104:	68 8e 00 00 00       	push   $0x8e
  101109:	6a 08                	push   $0x8
  10110b:	68 e6 17 10 00       	push   $0x1017e6
  101110:	6a 07                	push   $0x7
  101112:	e8 29 fe ff ff       	call   100f40 <idt_set_gate>
  101117:	83 c4 20             	add    $0x20,%esp
  10111a:	68 8e 00 00 00       	push   $0x8e
  10111f:	6a 08                	push   $0x8
  101121:	68 f0 17 10 00       	push   $0x1017f0
  101126:	6a 08                	push   $0x8
  101128:	e8 13 fe ff ff       	call   100f40 <idt_set_gate>
  10112d:	68 8e 00 00 00       	push   $0x8e
  101132:	6a 08                	push   $0x8
  101134:	68 f8 17 10 00       	push   $0x1017f8
  101139:	6a 09                	push   $0x9
  10113b:	e8 00 fe ff ff       	call   100f40 <idt_set_gate>
  101140:	83 c4 20             	add    $0x20,%esp
  101143:	68 8e 00 00 00       	push   $0x8e
  101148:	6a 08                	push   $0x8
  10114a:	68 02 18 10 00       	push   $0x101802
  10114f:	6a 0a                	push   $0xa
  101151:	e8 ea fd ff ff       	call   100f40 <idt_set_gate>
  101156:	68 8e 00 00 00       	push   $0x8e
  10115b:	6a 08                	push   $0x8
  10115d:	68 0a 18 10 00       	push   $0x10180a
  101162:	6a 0b                	push   $0xb
  101164:	e8 d7 fd ff ff       	call   100f40 <idt_set_gate>
  101169:	83 c4 20             	add    $0x20,%esp
  10116c:	68 8e 00 00 00       	push   $0x8e
  101171:	6a 08                	push   $0x8
  101173:	68 12 18 10 00       	push   $0x101812
  101178:	6a 0c                	push   $0xc
  10117a:	e8 c1 fd ff ff       	call   100f40 <idt_set_gate>
  10117f:	68 8e 00 00 00       	push   $0x8e
  101184:	6a 08                	push   $0x8
  101186:	68 1a 18 10 00       	push   $0x10181a
  10118b:	6a 0d                	push   $0xd
  10118d:	e8 ae fd ff ff       	call   100f40 <idt_set_gate>
  101192:	83 c4 20             	add    $0x20,%esp
  101195:	68 8e 00 00 00       	push   $0x8e
  10119a:	6a 08                	push   $0x8
  10119c:	68 22 18 10 00       	push   $0x101822
  1011a1:	6a 0e                	push   $0xe
  1011a3:	e8 98 fd ff ff       	call   100f40 <idt_set_gate>
  1011a8:	68 8e 00 00 00       	push   $0x8e
  1011ad:	6a 08                	push   $0x8
  1011af:	68 2a 18 10 00       	push   $0x10182a
  1011b4:	6a 0f                	push   $0xf
  1011b6:	e8 85 fd ff ff       	call   100f40 <idt_set_gate>
  1011bb:	83 c4 20             	add    $0x20,%esp
  1011be:	68 8e 00 00 00       	push   $0x8e
  1011c3:	6a 08                	push   $0x8
  1011c5:	68 34 18 10 00       	push   $0x101834
  1011ca:	6a 10                	push   $0x10
  1011cc:	e8 6f fd ff ff       	call   100f40 <idt_set_gate>
  1011d1:	68 8e 00 00 00       	push   $0x8e
  1011d6:	6a 08                	push   $0x8
  1011d8:	68 3e 18 10 00       	push   $0x10183e
  1011dd:	6a 11                	push   $0x11
  1011df:	e8 5c fd ff ff       	call   100f40 <idt_set_gate>
  1011e4:	83 c4 20             	add    $0x20,%esp
  1011e7:	68 8e 00 00 00       	push   $0x8e
  1011ec:	6a 08                	push   $0x8
  1011ee:	68 48 18 10 00       	push   $0x101848
  1011f3:	6a 12                	push   $0x12
  1011f5:	e8 46 fd ff ff       	call   100f40 <idt_set_gate>
  1011fa:	68 8e 00 00 00       	push   $0x8e
  1011ff:	6a 08                	push   $0x8
  101201:	68 52 18 10 00       	push   $0x101852
  101206:	6a 13                	push   $0x13
  101208:	e8 33 fd ff ff       	call   100f40 <idt_set_gate>
  10120d:	83 c4 20             	add    $0x20,%esp
  101210:	68 8e 00 00 00       	push   $0x8e
  101215:	6a 08                	push   $0x8
  101217:	68 5c 18 10 00       	push   $0x10185c
  10121c:	6a 14                	push   $0x14
  10121e:	e8 1d fd ff ff       	call   100f40 <idt_set_gate>
  101223:	68 8e 00 00 00       	push   $0x8e
  101228:	6a 08                	push   $0x8
  10122a:	68 66 18 10 00       	push   $0x101866
  10122f:	6a 15                	push   $0x15
  101231:	e8 0a fd ff ff       	call   100f40 <idt_set_gate>
  101236:	83 c4 20             	add    $0x20,%esp
  101239:	68 8e 00 00 00       	push   $0x8e
  10123e:	6a 08                	push   $0x8
  101240:	68 70 18 10 00       	push   $0x101870
  101245:	6a 16                	push   $0x16
  101247:	e8 f4 fc ff ff       	call   100f40 <idt_set_gate>
  10124c:	68 8e 00 00 00       	push   $0x8e
  101251:	6a 08                	push   $0x8
  101253:	68 7a 18 10 00       	push   $0x10187a
  101258:	6a 17                	push   $0x17
  10125a:	e8 e1 fc ff ff       	call   100f40 <idt_set_gate>
  10125f:	83 c4 20             	add    $0x20,%esp
  101262:	68 8e 00 00 00       	push   $0x8e
  101267:	6a 08                	push   $0x8
  101269:	68 84 18 10 00       	push   $0x101884
  10126e:	6a 18                	push   $0x18
  101270:	e8 cb fc ff ff       	call   100f40 <idt_set_gate>
  101275:	68 8e 00 00 00       	push   $0x8e
  10127a:	6a 08                	push   $0x8
  10127c:	68 8e 18 10 00       	push   $0x10188e
  101281:	6a 19                	push   $0x19
  101283:	e8 b8 fc ff ff       	call   100f40 <idt_set_gate>
  101288:	83 c4 20             	add    $0x20,%esp
  10128b:	68 8e 00 00 00       	push   $0x8e
  101290:	6a 08                	push   $0x8
  101292:	68 98 18 10 00       	push   $0x101898
  101297:	6a 1a                	push   $0x1a
  101299:	e8 a2 fc ff ff       	call   100f40 <idt_set_gate>
  10129e:	68 8e 00 00 00       	push   $0x8e
  1012a3:	6a 08                	push   $0x8
  1012a5:	68 a2 18 10 00       	push   $0x1018a2
  1012aa:	6a 1b                	push   $0x1b
  1012ac:	e8 8f fc ff ff       	call   100f40 <idt_set_gate>
  1012b1:	83 c4 20             	add    $0x20,%esp
  1012b4:	68 8e 00 00 00       	push   $0x8e
  1012b9:	6a 08                	push   $0x8
  1012bb:	68 ac 18 10 00       	push   $0x1018ac
  1012c0:	6a 1c                	push   $0x1c
  1012c2:	e8 79 fc ff ff       	call   100f40 <idt_set_gate>
  1012c7:	68 8e 00 00 00       	push   $0x8e
  1012cc:	6a 08                	push   $0x8
  1012ce:	68 b6 18 10 00       	push   $0x1018b6
  1012d3:	6a 1d                	push   $0x1d
  1012d5:	e8 66 fc ff ff       	call   100f40 <idt_set_gate>
  1012da:	83 c4 20             	add    $0x20,%esp
  1012dd:	68 8e 00 00 00       	push   $0x8e
  1012e2:	6a 08                	push   $0x8
  1012e4:	68 c0 18 10 00       	push   $0x1018c0
  1012e9:	6a 1e                	push   $0x1e
  1012eb:	e8 50 fc ff ff       	call   100f40 <idt_set_gate>
  1012f0:	68 8e 00 00 00       	push   $0x8e
  1012f5:	6a 08                	push   $0x8
  1012f7:	68 c7 18 10 00       	push   $0x1018c7
  1012fc:	6a 1f                	push   $0x1f
  1012fe:	e8 3d fc ff ff       	call   100f40 <idt_set_gate>
  101303:	83 c4 20             	add    $0x20,%esp
  101306:	c9                   	leave
  101307:	c3                   	ret
  101308:	2e 8d b4 26 00 00 00 	lea    %cs:0x0(%esi,%eiz,1),%esi
  10130f:	00 

00101310 <isr_handler>:
  101310:	55                   	push   %ebp
  101311:	89 e5                	mov    %esp,%ebp
  101313:	57                   	push   %edi
  101314:	56                   	push   %esi
  101315:	53                   	push   %ebx
  101316:	8d 5d a8             	lea    -0x58(%ebp),%ebx
  101319:	83 ec 58             	sub    $0x58,%esp
  10131c:	8b 75 2c             	mov    0x2c(%ebp),%esi
  10131f:	8b 7d 30             	mov    0x30(%ebp),%edi
  101322:	68 7b ba 10 00       	push   $0x10ba7b
  101327:	e8 e4 f8 ff ff       	call   100c10 <terminal_writestring>
  10132c:	c7 04 24 96 ba 10 00 	movl   $0x10ba96,(%esp)
  101333:	e8 d8 f8 ff ff       	call   100c10 <terminal_writestring>
  101338:	58                   	pop    %eax
  101339:	ff 34 b5 00 b0 10 00 	push   0x10b000(,%esi,4)
  101340:	e8 cb f8 ff ff       	call   100c10 <terminal_writestring>
  101345:	c7 04 24 a2 ba 10 00 	movl   $0x10baa2,(%esp)
  10134c:	e8 bf f8 ff ff       	call   100c10 <terminal_writestring>
  101351:	89 da                	mov    %ebx,%edx
  101353:	89 f0                	mov    %esi,%eax
  101355:	e8 c6 fc ff ff       	call   101020 <hex_to_str>
  10135a:	89 1c 24             	mov    %ebx,(%esp)
  10135d:	e8 ae f8 ff ff       	call   100c10 <terminal_writestring>
  101362:	c7 04 24 30 ca 10 00 	movl   $0x10ca30,(%esp)
  101369:	e8 a2 f8 ff ff       	call   100c10 <terminal_writestring>
  10136e:	c7 04 24 a6 ba 10 00 	movl   $0x10baa6,(%esp)
  101375:	e8 96 f8 ff ff       	call   100c10 <terminal_writestring>
  10137a:	89 da                	mov    %ebx,%edx
  10137c:	89 f8                	mov    %edi,%eax
  10137e:	e8 9d fc ff ff       	call   101020 <hex_to_str>
  101383:	89 1c 24             	mov    %ebx,(%esp)
  101386:	e8 85 f8 ff ff       	call   100c10 <terminal_writestring>
  10138b:	c7 04 24 a9 bf 10 00 	movl   $0x10bfa9,(%esp)
  101392:	e8 79 f8 ff ff       	call   100c10 <terminal_writestring>
  101397:	c7 04 24 b3 ba 10 00 	movl   $0x10bab3,(%esp)
  10139e:	e8 6d f8 ff ff       	call   100c10 <terminal_writestring>
  1013a3:	8b 45 28             	mov    0x28(%ebp),%eax
  1013a6:	89 da                	mov    %ebx,%edx
  1013a8:	e8 73 fc ff ff       	call   101020 <hex_to_str>
  1013ad:	89 1c 24             	mov    %ebx,(%esp)
  1013b0:	e8 5b f8 ff ff       	call   100c10 <terminal_writestring>
  1013b5:	c7 04 24 bb ba 10 00 	movl   $0x10babb,(%esp)
  1013bc:	e8 4f f8 ff ff       	call   100c10 <terminal_writestring>
  1013c1:	8b 45 1c             	mov    0x1c(%ebp),%eax
  1013c4:	89 da                	mov    %ebx,%edx
  1013c6:	e8 55 fc ff ff       	call   101020 <hex_to_str>
  1013cb:	89 1c 24             	mov    %ebx,(%esp)
  1013ce:	e8 3d f8 ff ff       	call   100c10 <terminal_writestring>
  1013d3:	c7 04 24 c3 ba 10 00 	movl   $0x10bac3,(%esp)
  1013da:	e8 31 f8 ff ff       	call   100c10 <terminal_writestring>
  1013df:	8b 45 24             	mov    0x24(%ebp),%eax
  1013e2:	89 da                	mov    %ebx,%edx
  1013e4:	e8 37 fc ff ff       	call   101020 <hex_to_str>
  1013e9:	89 1c 24             	mov    %ebx,(%esp)
  1013ec:	e8 1f f8 ff ff       	call   100c10 <terminal_writestring>
  1013f1:	c7 04 24 cb ba 10 00 	movl   $0x10bacb,(%esp)
  1013f8:	e8 13 f8 ff ff       	call   100c10 <terminal_writestring>
  1013fd:	8b 45 20             	mov    0x20(%ebp),%eax
  101400:	89 da                	mov    %ebx,%edx
  101402:	e8 19 fc ff ff       	call   101020 <hex_to_str>
  101407:	89 1c 24             	mov    %ebx,(%esp)
  10140a:	e8 01 f8 ff ff       	call   100c10 <terminal_writestring>
  10140f:	c7 04 24 a9 bf 10 00 	movl   $0x10bfa9,(%esp)
  101416:	e8 f5 f7 ff ff       	call   100c10 <terminal_writestring>
  10141b:	c7 04 24 d3 ba 10 00 	movl   $0x10bad3,(%esp)
  101422:	e8 e9 f7 ff ff       	call   100c10 <terminal_writestring>
  101427:	8b 45 10             	mov    0x10(%ebp),%eax
  10142a:	89 da                	mov    %ebx,%edx
  10142c:	e8 ef fb ff ff       	call   101020 <hex_to_str>
  101431:	89 1c 24             	mov    %ebx,(%esp)
  101434:	e8 d7 f7 ff ff       	call   100c10 <terminal_writestring>
  101439:	c7 04 24 db ba 10 00 	movl   $0x10badb,(%esp)
  101440:	e8 cb f7 ff ff       	call   100c10 <terminal_writestring>
  101445:	8b 45 0c             	mov    0xc(%ebp),%eax
  101448:	89 da                	mov    %ebx,%edx
  10144a:	e8 d1 fb ff ff       	call   101020 <hex_to_str>
  10144f:	89 1c 24             	mov    %ebx,(%esp)
  101452:	e8 b9 f7 ff ff       	call   100c10 <terminal_writestring>
  101457:	c7 04 24 e3 ba 10 00 	movl   $0x10bae3,(%esp)
  10145e:	e8 ad f7 ff ff       	call   100c10 <terminal_writestring>
  101463:	8b 45 14             	mov    0x14(%ebp),%eax
  101466:	89 da                	mov    %ebx,%edx
  101468:	e8 b3 fb ff ff       	call   101020 <hex_to_str>
  10146d:	89 1c 24             	mov    %ebx,(%esp)
  101470:	e8 9b f7 ff ff       	call   100c10 <terminal_writestring>
  101475:	c7 04 24 eb ba 10 00 	movl   $0x10baeb,(%esp)
  10147c:	e8 8f f7 ff ff       	call   100c10 <terminal_writestring>
  101481:	8b 45 18             	mov    0x18(%ebp),%eax
  101484:	89 da                	mov    %ebx,%edx
  101486:	e8 95 fb ff ff       	call   101020 <hex_to_str>
  10148b:	89 1c 24             	mov    %ebx,(%esp)
  10148e:	e8 7d f7 ff ff       	call   100c10 <terminal_writestring>
  101493:	c7 04 24 a9 bf 10 00 	movl   $0x10bfa9,(%esp)
  10149a:	e8 71 f7 ff ff       	call   100c10 <terminal_writestring>
  10149f:	c7 04 24 f3 ba 10 00 	movl   $0x10baf3,(%esp)
  1014a6:	e8 65 f7 ff ff       	call   100c10 <terminal_writestring>
  1014ab:	8b 45 34             	mov    0x34(%ebp),%eax
  1014ae:	89 da                	mov    %ebx,%edx
  1014b0:	e8 6b fb ff ff       	call   101020 <hex_to_str>
  1014b5:	89 1c 24             	mov    %ebx,(%esp)
  1014b8:	e8 53 f7 ff ff       	call   100c10 <terminal_writestring>
  1014bd:	c7 04 24 fb ba 10 00 	movl   $0x10bafb,(%esp)
  1014c4:	e8 47 f7 ff ff       	call   100c10 <terminal_writestring>
  1014c9:	8b 45 38             	mov    0x38(%ebp),%eax
  1014cc:	89 da                	mov    %ebx,%edx
  1014ce:	e8 4d fb ff ff       	call   101020 <hex_to_str>
  1014d3:	89 1c 24             	mov    %ebx,(%esp)
  1014d6:	e8 35 f7 ff ff       	call   100c10 <terminal_writestring>
  1014db:	c7 04 24 02 bb 10 00 	movl   $0x10bb02,(%esp)
  1014e2:	e8 29 f7 ff ff       	call   100c10 <terminal_writestring>
  1014e7:	8b 45 3c             	mov    0x3c(%ebp),%eax
  1014ea:	89 da                	mov    %ebx,%edx
  1014ec:	e8 2f fb ff ff       	call   101020 <hex_to_str>
  1014f1:	89 1c 24             	mov    %ebx,(%esp)
  1014f4:	e8 17 f7 ff ff       	call   100c10 <terminal_writestring>
  1014f9:	c7 04 24 a9 bf 10 00 	movl   $0x10bfa9,(%esp)
  101500:	e8 0b f7 ff ff       	call   100c10 <terminal_writestring>
  101505:	83 c4 10             	add    $0x10,%esp
  101508:	83 fe 0e             	cmp    $0xe,%esi
  10150b:	74 16                	je     101523 <isr_handler+0x213>
  10150d:	83 ec 0c             	sub    $0xc,%esp
  101510:	68 a9 bb 10 00       	push   $0x10bba9
  101515:	e8 f6 f6 ff ff       	call   100c10 <terminal_writestring>
  10151a:	83 c4 10             	add    $0x10,%esp
  10151d:	8d 76 00             	lea    0x0(%esi),%esi
  101520:	f4                   	hlt
  101521:	eb fd                	jmp    101520 <isr_handler+0x210>
  101523:	0f 20 d6             	mov    %cr2,%esi
  101526:	83 ec 0c             	sub    $0xc,%esp
  101529:	68 0d bb 10 00       	push   $0x10bb0d
  10152e:	e8 dd f6 ff ff       	call   100c10 <terminal_writestring>
  101533:	89 da                	mov    %ebx,%edx
  101535:	89 f0                	mov    %esi,%eax
  101537:	e8 e4 fa ff ff       	call   101020 <hex_to_str>
  10153c:	89 1c 24             	mov    %ebx,(%esp)
  10153f:	e8 cc f6 ff ff       	call   100c10 <terminal_writestring>
  101544:	c7 04 24 a9 bf 10 00 	movl   $0x10bfa9,(%esp)
  10154b:	e8 c0 f6 ff ff       	call   100c10 <terminal_writestring>
  101550:	c7 04 24 20 bb 10 00 	movl   $0x10bb20,(%esp)
  101557:	e8 b4 f6 ff ff       	call   100c10 <terminal_writestring>
  10155c:	83 c4 10             	add    $0x10,%esp
  10155f:	f7 c7 01 00 00 00    	test   $0x1,%edi
  101565:	75 42                	jne    1015a9 <isr_handler+0x299>
  101567:	83 ec 0c             	sub    $0xc,%esp
  10156a:	68 4c bb 10 00       	push   $0x10bb4c
  10156f:	e8 9c f6 ff ff       	call   100c10 <terminal_writestring>
  101574:	83 c4 10             	add    $0x10,%esp
  101577:	f7 c7 02 00 00 00    	test   $0x2,%edi
  10157d:	74 51                	je     1015d0 <isr_handler+0x2c0>
  10157f:	83 ec 0c             	sub    $0xc,%esp
  101582:	68 62 bb 10 00       	push   $0x10bb62
  101587:	e8 84 f6 ff ff       	call   100c10 <terminal_writestring>
  10158c:	83 c4 10             	add    $0x10,%esp
  10158f:	83 e7 04             	and    $0x4,%edi
  101592:	74 27                	je     1015bb <isr_handler+0x2ab>
  101594:	83 ec 0c             	sub    $0xc,%esp
  101597:	68 85 bb 10 00       	push   $0x10bb85
  10159c:	e8 6f f6 ff ff       	call   100c10 <terminal_writestring>
  1015a1:	83 c4 10             	add    $0x10,%esp
  1015a4:	e9 64 ff ff ff       	jmp    10150d <isr_handler+0x1fd>
  1015a9:	83 ec 0c             	sub    $0xc,%esp
  1015ac:	68 32 bb 10 00       	push   $0x10bb32
  1015b1:	e8 5a f6 ff ff       	call   100c10 <terminal_writestring>
  1015b6:	83 c4 10             	add    $0x10,%esp
  1015b9:	eb bc                	jmp    101577 <isr_handler+0x267>
  1015bb:	83 ec 0c             	sub    $0xc,%esp
  1015be:	68 94 bb 10 00       	push   $0x10bb94
  1015c3:	e8 48 f6 ff ff       	call   100c10 <terminal_writestring>
  1015c8:	83 c4 10             	add    $0x10,%esp
  1015cb:	e9 3d ff ff ff       	jmp    10150d <isr_handler+0x1fd>
  1015d0:	83 ec 0c             	sub    $0xc,%esp
  1015d3:	68 74 bb 10 00       	push   $0x10bb74
  1015d8:	e8 33 f6 ff ff       	call   100c10 <terminal_writestring>
  1015dd:	83 c4 10             	add    $0x10,%esp
  1015e0:	eb ad                	jmp    10158f <isr_handler+0x27f>
  1015e2:	8d b6 00 00 00 00    	lea    0x0(%esi),%esi
  1015e8:	2e 8d b4 26 00 00 00 	lea    %cs:0x0(%esi,%eiz,1),%esi
  1015ef:	00 

001015f0 <register_interrupt_handler>:
  1015f0:	55                   	push   %ebp
  1015f1:	89 e5                	mov    %esp,%ebp
  1015f3:	0f b6 45 08          	movzbl 0x8(%ebp),%eax
  1015f7:	8b 55 0c             	mov    0xc(%ebp),%edx
  1015fa:	89 14 85 20 39 11 00 	mov    %edx,0x113920(,%eax,4)
  101601:	5d                   	pop    %ebp
  101602:	c3                   	ret
  101603:	66 90                	xchg   %ax,%ax
  101605:	66 90                	xchg   %ax,%ax
  101607:	66 90                	xchg   %ax,%ax
  101609:	66 90                	xchg   %ax,%ax
  10160b:	66 90                	xchg   %ax,%ax
  10160d:	66 90                	xchg   %ax,%ax
  10160f:	90                   	nop

00101610 <irq_install>:
  101610:	55                   	push   %ebp
  101611:	89 e5                	mov    %esp,%ebp
  101613:	83 ec 08             	sub    $0x8,%esp
  101616:	68 8e 00 00 00       	push   $0x8e
  10161b:	6a 08                	push   $0x8
  10161d:	68 ce 18 10 00       	push   $0x1018ce
  101622:	6a 20                	push   $0x20
  101624:	e8 17 f9 ff ff       	call   100f40 <idt_set_gate>
  101629:	68 8e 00 00 00       	push   $0x8e
  10162e:	6a 08                	push   $0x8
  101630:	68 d8 18 10 00       	push   $0x1018d8
  101635:	6a 21                	push   $0x21
  101637:	e8 04 f9 ff ff       	call   100f40 <idt_set_gate>
  10163c:	83 c4 20             	add    $0x20,%esp
  10163f:	68 8e 00 00 00       	push   $0x8e
  101644:	6a 08                	push   $0x8
  101646:	68 e2 18 10 00       	push   $0x1018e2
  10164b:	6a 22                	push   $0x22
  10164d:	e8 ee f8 ff ff       	call   100f40 <idt_set_gate>
  101652:	68 8e 00 00 00       	push   $0x8e
  101657:	6a 08                	push   $0x8
  101659:	68 e9 18 10 00       	push   $0x1018e9
  10165e:	6a 23                	push   $0x23
  101660:	e8 db f8 ff ff       	call   100f40 <idt_set_gate>
  101665:	83 c4 20             	add    $0x20,%esp
  101668:	68 8e 00 00 00       	push   $0x8e
  10166d:	6a 08                	push   $0x8
  10166f:	68 f0 18 10 00       	push   $0x1018f0
  101674:	6a 24                	push   $0x24
  101676:	e8 c5 f8 ff ff       	call   100f40 <idt_set_gate>
  10167b:	68 8e 00 00 00       	push   $0x8e
  101680:	6a 08                	push   $0x8
  101682:	68 f7 18 10 00       	push   $0x1018f7
  101687:	6a 25                	push   $0x25
  101689:	e8 b2 f8 ff ff       	call   100f40 <idt_set_gate>
  10168e:	83 c4 20             	add    $0x20,%esp
  101691:	68 8e 00 00 00       	push   $0x8e
  101696:	6a 08                	push   $0x8
  101698:	68 fe 18 10 00       	push   $0x1018fe
  10169d:	6a 26                	push   $0x26
  10169f:	e8 9c f8 ff ff       	call   100f40 <idt_set_gate>
  1016a4:	68 8e 00 00 00       	push   $0x8e
  1016a9:	6a 08                	push   $0x8
  1016ab:	68 05 19 10 00       	push   $0x101905
  1016b0:	6a 27                	push   $0x27
  1016b2:	e8 89 f8 ff ff       	call   100f40 <idt_set_gate>
  1016b7:	83 c4 20             	add    $0x20,%esp
  1016ba:	68 8e 00 00 00       	push   $0x8e
  1016bf:	6a 08                	push   $0x8
  1016c1:	68 0c 19 10 00       	push   $0x10190c
  1016c6:	6a 28                	push   $0x28
  1016c8:	e8 73 f8 ff ff       	call   100f40 <idt_set_gate>
  1016cd:	68 8e 00 00 00       	push   $0x8e
  1016d2:	6a 08                	push   $0x8
  1016d4:	68 13 19 10 00       	push   $0x101913
  1016d9:	6a 29                	push   $0x29
  1016db:	e8 60 f8 ff ff       	call   100f40 <idt_set_gate>
  1016e0:	83 c4 20             	add    $0x20,%esp
  1016e3:	68 8e 00 00 00       	push   $0x8e
  1016e8:	6a 08                	push   $0x8
  1016ea:	68 1a 19 10 00       	push   $0x10191a
  1016ef:	6a 2a                	push   $0x2a
  1016f1:	e8 4a f8 ff ff       	call   100f40 <idt_set_gate>
  1016f6:	68 8e 00 00 00       	push   $0x8e
  1016fb:	6a 08                	push   $0x8
  1016fd:	68 21 19 10 00       	push   $0x101921
  101702:	6a 2b                	push   $0x2b
  101704:	e8 37 f8 ff ff       	call   100f40 <idt_set_gate>
  101709:	83 c4 20             	add    $0x20,%esp
  10170c:	68 8e 00 00 00       	push   $0x8e
  101711:	6a 08                	push   $0x8
  101713:	68 28 19 10 00       	push   $0x101928
  101718:	6a 2c                	push   $0x2c
  10171a:	e8 21 f8 ff ff       	call   100f40 <idt_set_gate>
  10171f:	68 8e 00 00 00       	push   $0x8e
  101724:	6a 08                	push   $0x8
  101726:	68 2f 19 10 00       	push   $0x10192f
  10172b:	6a 2d                	push   $0x2d
  10172d:	e8 0e f8 ff ff       	call   100f40 <idt_set_gate>
  101732:	83 c4 20             	add    $0x20,%esp
  101735:	68 8e 00 00 00       	push   $0x8e
  10173a:	6a 08                	push   $0x8
  10173c:	68 36 19 10 00       	push   $0x101936
  101741:	6a 2e                	push   $0x2e
  101743:	e8 f8 f7 ff ff       	call   100f40 <idt_set_gate>
  101748:	68 8e 00 00 00       	push   $0x8e
  10174d:	6a 08                	push   $0x8
  10174f:	68 3d 19 10 00       	push   $0x10193d
  101754:	6a 2f                	push   $0x2f
  101756:	e8 e5 f7 ff ff       	call   100f40 <idt_set_gate>
  10175b:	83 c4 20             	add    $0x20,%esp
  10175e:	c9                   	leave
  10175f:	c3                   	ret

00101760 <irq_handler>:
  101760:	55                   	push   %ebp
  101761:	89 e5                	mov    %esp,%ebp
  101763:	83 ec 08             	sub    $0x8,%esp
  101766:	8b 55 2c             	mov    0x2c(%ebp),%edx
  101769:	83 fa 27             	cmp    $0x27,%edx
  10176c:	76 07                	jbe    101775 <irq_handler+0x15>
  10176e:	b8 20 00 00 00       	mov    $0x20,%eax
  101773:	e6 a0                	out    %al,$0xa0
  101775:	b8 20 00 00 00       	mov    $0x20,%eax
  10177a:	e6 20                	out    %al,$0x20
  10177c:	8b 04 95 20 39 11 00 	mov    0x113920(,%edx,4),%eax
  101783:	85 c0                	test   %eax,%eax
  101785:	74 0c                	je     101793 <irq_handler+0x33>
  101787:	83 ec 0c             	sub    $0xc,%esp
  10178a:	8d 55 08             	lea    0x8(%ebp),%edx
  10178d:	52                   	push   %edx
  10178e:	ff d0                	call   *%eax
  101790:	83 c4 10             	add    $0x10,%esp
  101793:	c9                   	leave
  101794:	c3                   	ret
  101795:	66 90                	xchg   %ax,%ax
  101797:	66 90                	xchg   %ax,%ax
  101799:	66 90                	xchg   %ax,%ax
  10179b:	66 90                	xchg   %ax,%ax
  10179d:	66 90                	xchg   %ax,%ax
  10179f:	90                   	nop

001017a0 <isr0>:
  1017a0:	fa                   	cli
  1017a1:	6a 00                	push   $0x0
  1017a3:	6a 00                	push   $0x0
  1017a5:	e9 9a 01 00 00       	jmp    101944 <isr_common_stub>

001017aa <isr1>:
  1017aa:	fa                   	cli
  1017ab:	6a 00                	push   $0x0
  1017ad:	6a 01                	push   $0x1
  1017af:	e9 90 01 00 00       	jmp    101944 <isr_common_stub>

001017b4 <isr2>:
  1017b4:	fa                   	cli
  1017b5:	6a 00                	push   $0x0
  1017b7:	6a 02                	push   $0x2
  1017b9:	e9 86 01 00 00       	jmp    101944 <isr_common_stub>

001017be <isr3>:
  1017be:	fa                   	cli
  1017bf:	6a 00                	push   $0x0
  1017c1:	6a 03                	push   $0x3
  1017c3:	e9 7c 01 00 00       	jmp    101944 <isr_common_stub>

001017c8 <isr4>:
  1017c8:	fa                   	cli
  1017c9:	6a 00                	push   $0x0
  1017cb:	6a 04                	push   $0x4
  1017cd:	e9 72 01 00 00       	jmp    101944 <isr_common_stub>

001017d2 <isr5>:
  1017d2:	fa                   	cli
  1017d3:	6a 00                	push   $0x0
  1017d5:	6a 05                	push   $0x5
  1017d7:	e9 68 01 00 00       	jmp    101944 <isr_common_stub>

001017dc <isr6>:
  1017dc:	fa                   	cli
  1017dd:	6a 00                	push   $0x0
  1017df:	6a 06                	push   $0x6
  1017e1:	e9 5e 01 00 00       	jmp    101944 <isr_common_stub>

001017e6 <isr7>:
  1017e6:	fa                   	cli
  1017e7:	6a 00                	push   $0x0
  1017e9:	6a 07                	push   $0x7
  1017eb:	e9 54 01 00 00       	jmp    101944 <isr_common_stub>

001017f0 <isr8>:
  1017f0:	fa                   	cli
  1017f1:	6a 08                	push   $0x8
  1017f3:	e9 4c 01 00 00       	jmp    101944 <isr_common_stub>

001017f8 <isr9>:
  1017f8:	fa                   	cli
  1017f9:	6a 00                	push   $0x0
  1017fb:	6a 09                	push   $0x9
  1017fd:	e9 42 01 00 00       	jmp    101944 <isr_common_stub>

00101802 <isr10>:
  101802:	fa                   	cli
  101803:	6a 0a                	push   $0xa
  101805:	e9 3a 01 00 00       	jmp    101944 <isr_common_stub>

0010180a <isr11>:
  10180a:	fa                   	cli
  10180b:	6a 0b                	push   $0xb
  10180d:	e9 32 01 00 00       	jmp    101944 <isr_common_stub>

00101812 <isr12>:
  101812:	fa                   	cli
  101813:	6a 0c                	push   $0xc
  101815:	e9 2a 01 00 00       	jmp    101944 <isr_common_stub>

0010181a <isr13>:
  10181a:	fa                   	cli
  10181b:	6a 0d                	push   $0xd
  10181d:	e9 22 01 00 00       	jmp    101944 <isr_common_stub>

00101822 <isr14>:
  101822:	fa                   	cli
  101823:	6a 0e                	push   $0xe
  101825:	e9 1a 01 00 00       	jmp    101944 <isr_common_stub>

0010182a <isr15>:
  10182a:	fa                   	cli
  10182b:	6a 00                	push   $0x0
  10182d:	6a 0f                	push   $0xf
  10182f:	e9 10 01 00 00       	jmp    101944 <isr_common_stub>

00101834 <isr16>:
  101834:	fa                   	cli
  101835:	6a 00                	push   $0x0
  101837:	6a 10                	push   $0x10
  101839:	e9 06 01 00 00       	jmp    101944 <isr_common_stub>

0010183e <isr17>:
  10183e:	fa                   	cli
  10183f:	6a 00                	push   $0x0
  101841:	6a 11                	push   $0x11
  101843:	e9 fc 00 00 00       	jmp    101944 <isr_common_stub>

00101848 <isr18>:
  101848:	fa                   	cli
  101849:	6a 00                	push   $0x0
  10184b:	6a 12                	push   $0x12
  10184d:	e9 f2 00 00 00       	jmp    101944 <isr_common_stub>

00101852 <isr19>:
  101852:	fa                   	cli
  101853:	6a 00                	push   $0x0
  101855:	6a 13                	push   $0x13
  101857:	e9 e8 00 00 00       	jmp    101944 <isr_common_stub>

0010185c <isr20>:
  10185c:	fa                   	cli
  10185d:	6a 00                	push   $0x0
  10185f:	6a 14                	push   $0x14
  101861:	e9 de 00 00 00       	jmp    101944 <isr_common_stub>

00101866 <isr21>:
  101866:	fa                   	cli
  101867:	6a 00                	push   $0x0
  101869:	6a 15                	push   $0x15
  10186b:	e9 d4 00 00 00       	jmp    101944 <isr_common_stub>

00101870 <isr22>:
  101870:	fa                   	cli
  101871:	6a 00                	push   $0x0
  101873:	6a 16                	push   $0x16
  101875:	e9 ca 00 00 00       	jmp    101944 <isr_common_stub>

0010187a <isr23>:
  10187a:	fa                   	cli
  10187b:	6a 00                	push   $0x0
  10187d:	6a 17                	push   $0x17
  10187f:	e9 c0 00 00 00       	jmp    101944 <isr_common_stub>

00101884 <isr24>:
  101884:	fa                   	cli
  101885:	6a 00                	push   $0x0
  101887:	6a 18                	push   $0x18
  101889:	e9 b6 00 00 00       	jmp    101944 <isr_common_stub>

0010188e <isr25>:
  10188e:	fa                   	cli
  10188f:	6a 00                	push   $0x0
  101891:	6a 19                	push   $0x19
  101893:	e9 ac 00 00 00       	jmp    101944 <isr_common_stub>

00101898 <isr26>:
  101898:	fa                   	cli
  101899:	6a 00                	push   $0x0
  10189b:	6a 1a                	push   $0x1a
  10189d:	e9 a2 00 00 00       	jmp    101944 <isr_common_stub>

001018a2 <isr27>:
  1018a2:	fa                   	cli
  1018a3:	6a 00                	push   $0x0
  1018a5:	6a 1b                	push   $0x1b
  1018a7:	e9 98 00 00 00       	jmp    101944 <isr_common_stub>

001018ac <isr28>:
  1018ac:	fa                   	cli
  1018ad:	6a 00                	push   $0x0
  1018af:	6a 1c                	push   $0x1c
  1018b1:	e9 8e 00 00 00       	jmp    101944 <isr_common_stub>

001018b6 <isr29>:
  1018b6:	fa                   	cli
  1018b7:	6a 00                	push   $0x0
  1018b9:	6a 1d                	push   $0x1d
  1018bb:	e9 84 00 00 00       	jmp    101944 <isr_common_stub>

001018c0 <isr30>:
  1018c0:	fa                   	cli
  1018c1:	6a 00                	push   $0x0
  1018c3:	6a 1e                	push   $0x1e
  1018c5:	eb 7d                	jmp    101944 <isr_common_stub>

001018c7 <isr31>:
  1018c7:	fa                   	cli
  1018c8:	6a 00                	push   $0x0
  1018ca:	6a 1f                	push   $0x1f
  1018cc:	eb 76                	jmp    101944 <isr_common_stub>

001018ce <irq0>:
  1018ce:	fa                   	cli
  1018cf:	6a 00                	push   $0x0
  1018d1:	6a 20                	push   $0x20
  1018d3:	e9 90 00 00 00       	jmp    101968 <irq_common_stub>

001018d8 <irq1>:
  1018d8:	fa                   	cli
  1018d9:	6a 00                	push   $0x0
  1018db:	6a 21                	push   $0x21
  1018dd:	e9 86 00 00 00       	jmp    101968 <irq_common_stub>

001018e2 <irq2>:
  1018e2:	fa                   	cli
  1018e3:	6a 00                	push   $0x0
  1018e5:	6a 22                	push   $0x22
  1018e7:	eb 7f                	jmp    101968 <irq_common_stub>

001018e9 <irq3>:
  1018e9:	fa                   	cli
  1018ea:	6a 00                	push   $0x0
  1018ec:	6a 23                	push   $0x23
  1018ee:	eb 78                	jmp    101968 <irq_common_stub>

001018f0 <irq4>:
  1018f0:	fa                   	cli
  1018f1:	6a 00                	push   $0x0
  1018f3:	6a 24                	push   $0x24
  1018f5:	eb 71                	jmp    101968 <irq_common_stub>

001018f7 <irq5>:
  1018f7:	fa                   	cli
  1018f8:	6a 00                	push   $0x0
  1018fa:	6a 25                	push   $0x25
  1018fc:	eb 6a                	jmp    101968 <irq_common_stub>

001018fe <irq6>:
  1018fe:	fa                   	cli
  1018ff:	6a 00                	push   $0x0
  101901:	6a 26                	push   $0x26
  101903:	eb 63                	jmp    101968 <irq_common_stub>

00101905 <irq7>:
  101905:	fa                   	cli
  101906:	6a 00                	push   $0x0
  101908:	6a 27                	push   $0x27
  10190a:	eb 5c                	jmp    101968 <irq_common_stub>

0010190c <irq8>:
  10190c:	fa                   	cli
  10190d:	6a 00                	push   $0x0
  10190f:	6a 28                	push   $0x28
  101911:	eb 55                	jmp    101968 <irq_common_stub>

00101913 <irq9>:
  101913:	fa                   	cli
  101914:	6a 00                	push   $0x0
  101916:	6a 29                	push   $0x29
  101918:	eb 4e                	jmp    101968 <irq_common_stub>

0010191a <irq10>:
  10191a:	fa                   	cli
  10191b:	6a 00                	push   $0x0
  10191d:	6a 2a                	push   $0x2a
  10191f:	eb 47                	jmp    101968 <irq_common_stub>

00101921 <irq11>:
  101921:	fa                   	cli
  101922:	6a 00                	push   $0x0
  101924:	6a 2b                	push   $0x2b
  101926:	eb 40                	jmp    101968 <irq_common_stub>

00101928 <irq12>:
  101928:	fa                   	cli
  101929:	6a 00                	push   $0x0
  10192b:	6a 2c                	push   $0x2c
  10192d:	eb 39                	jmp    101968 <irq_common_stub>

0010192f <irq13>:
  10192f:	fa                   	cli
  101930:	6a 00                	push   $0x0
  101932:	6a 2d                	push   $0x2d
  101934:	eb 32                	jmp    101968 <irq_common_stub>

00101936 <irq14>:
  101936:	fa                   	cli
  101937:	6a 00                	push   $0x0
  101939:	6a 2e                	push   $0x2e
  10193b:	eb 2b                	jmp    101968 <irq_common_stub>

0010193d <irq15>:
  10193d:	fa                   	cli
  10193e:	6a 00                	push   $0x0
  101940:	6a 2f                	push   $0x2f
  101942:	eb 24                	jmp    101968 <irq_common_stub>

00101944 <isr_common_stub>:
  101944:	60                   	pusha
  101945:	66 8c d8             	mov    %ds,%ax
  101948:	50                   	push   %eax
  101949:	66 b8 10 00          	mov    $0x10,%ax
  10194d:	8e d8                	mov    %eax,%ds
  10194f:	8e c0                	mov    %eax,%es
  101951:	8e e0                	mov    %eax,%fs
  101953:	8e e8                	mov    %eax,%gs
  101955:	e8 b6 f9 ff ff       	call   101310 <isr_handler>
  10195a:	58                   	pop    %eax
  10195b:	8e d8                	mov    %eax,%ds
  10195d:	8e c0                	mov    %eax,%es
  10195f:	8e e0                	mov    %eax,%fs
  101961:	8e e8                	mov    %eax,%gs
  101963:	61                   	popa
  101964:	83 c4 08             	add    $0x8,%esp
  101967:	cf                   	iret

00101968 <irq_common_stub>:
  101968:	60                   	pusha
  101969:	66 8c d8             	mov    %ds,%ax
  10196c:	50                   	push   %eax
  10196d:	66 b8 10 00          	mov    $0x10,%ax
  101971:	8e d8                	mov    %eax,%ds
  101973:	8e c0                	mov    %eax,%es
  101975:	8e e0                	mov    %eax,%fs
  101977:	8e e8                	mov    %eax,%gs
  101979:	e8 e2 fd ff ff       	call   101760 <irq_handler>
  10197e:	5b                   	pop    %ebx
  10197f:	8e db                	mov    %ebx,%ds
  101981:	8e c3                	mov    %ebx,%es
  101983:	8e e3                	mov    %ebx,%fs
  101985:	8e eb                	mov    %ebx,%gs
  101987:	61                   	popa
  101988:	83 c4 08             	add    $0x8,%esp
  10198b:	cf                   	iret
  10198c:	66 90                	xchg   %ax,%ax
  10198e:	66 90                	xchg   %ax,%ax

00101990 <idt_flush>:
  101990:	8b 44 24 04          	mov    0x4(%esp),%eax
  101994:	0f 01 18             	lidtl  (%eax)
  101997:	c3                   	ret
  101998:	66 90                	xchg   %ax,%ax
  10199a:	66 90                	xchg   %ax,%ax
  10199c:	66 90                	xchg   %ax,%ax
  10199e:	66 90                	xchg   %ax,%ax

001019a0 <keyboard_callback>:
  1019a0:	e4 60                	in     $0x60,%al
  1019a2:	84 c0                	test   %al,%al
  1019a4:	78 3a                	js     1019e0 <keyboard_callback+0x40>
  1019a6:	3c 3b                	cmp    $0x3b,%al
  1019a8:	74 22                	je     1019cc <keyboard_callback+0x2c>
  1019aa:	77 1c                	ja     1019c8 <keyboard_callback+0x28>
  1019ac:	3c 3a                	cmp    $0x3a,%al
  1019ae:	74 58                	je     101a08 <keyboard_callback+0x68>
  1019b0:	3c 2a                	cmp    $0x2a,%al
  1019b2:	74 04                	je     1019b8 <keyboard_callback+0x18>
  1019b4:	3c 36                	cmp    $0x36,%al
  1019b6:	75 68                	jne    101a20 <keyboard_callback+0x80>
  1019b8:	c7 05 28 3d 11 00 01 	movl   $0x1,0x113d28
  1019bf:	00 00 00 
  1019c2:	c3                   	ret
  1019c3:	2e 8d 74 26 00       	lea    %cs:0x0(%esi,%eiz,1),%esi
  1019c8:	3c 58                	cmp    $0x58,%al
  1019ca:	75 24                	jne    1019f0 <keyboard_callback+0x50>
  1019cc:	c7 05 20 3d 11 00 01 	movl   $0x1,0x113d20
  1019d3:	00 00 00 
  1019d6:	c3                   	ret
  1019d7:	90                   	nop
  1019d8:	2e 8d b4 26 00 00 00 	lea    %cs:0x0(%esi,%eiz,1),%esi
  1019df:	00 
  1019e0:	83 e0 7f             	and    $0x7f,%eax
  1019e3:	3c 2a                	cmp    $0x2a,%al
  1019e5:	74 11                	je     1019f8 <keyboard_callback+0x58>
  1019e7:	3c 36                	cmp    $0x36,%al
  1019e9:	74 0d                	je     1019f8 <keyboard_callback+0x58>
  1019eb:	c3                   	ret
  1019ec:	8d 74 26 00          	lea    0x0(%esi,%eiz,1),%esi
  1019f0:	c3                   	ret
  1019f1:	8d b4 26 00 00 00 00 	lea    0x0(%esi,%eiz,1),%esi
  1019f8:	c7 05 28 3d 11 00 00 	movl   $0x0,0x113d28
  1019ff:	00 00 00 
  101a02:	c3                   	ret
  101a03:	2e 8d 74 26 00       	lea    %cs:0x0(%esi,%eiz,1),%esi
  101a08:	8b 0d 24 3d 11 00    	mov    0x113d24,%ecx
  101a0e:	31 c0                	xor    %eax,%eax
  101a10:	85 c9                	test   %ecx,%ecx
  101a12:	0f 94 c0             	sete   %al
  101a15:	a3 24 3d 11 00       	mov    %eax,0x113d24
  101a1a:	c3                   	ret
  101a1b:	2e 8d 74 26 00       	lea    %cs:0x0(%esi,%eiz,1),%esi
  101a20:	8b 15 28 3d 11 00    	mov    0x113d28,%edx
  101a26:	85 d2                	test   %edx,%edx
  101a28:	74 4e                	je     101a78 <keyboard_callback+0xd8>
  101a2a:	8b 0d 24 3d 11 00    	mov    0x113d24,%ecx
  101a30:	85 c9                	test   %ecx,%ecx
  101a32:	75 4e                	jne    101a82 <keyboard_callback+0xe2>
  101a34:	0f b6 c0             	movzbl %al,%eax
  101a37:	0f b6 90 80 b0 10 00 	movzbl 0x10b080(%eax),%edx
  101a3e:	84 d2                	test   %dl,%dl
  101a40:	74 a9                	je     1019eb <keyboard_callback+0x4b>
  101a42:	a1 30 3d 11 00       	mov    0x113d30,%eax
  101a47:	8d 48 01             	lea    0x1(%eax),%ecx
  101a4a:	c1 f9 1f             	sar    $0x1f,%ecx
  101a4d:	c1 e9 18             	shr    $0x18,%ecx
  101a50:	8d 44 08 01          	lea    0x1(%eax,%ecx,1),%eax
  101a54:	0f b6 c0             	movzbl %al,%eax
  101a57:	29 c8                	sub    %ecx,%eax
  101a59:	8b 0d 2c 3d 11 00    	mov    0x113d2c,%ecx
  101a5f:	39 c8                	cmp    %ecx,%eax
  101a61:	74 88                	je     1019eb <keyboard_callback+0x4b>
  101a63:	8b 0d 30 3d 11 00    	mov    0x113d30,%ecx
  101a69:	a3 30 3d 11 00       	mov    %eax,0x113d30
  101a6e:	88 91 40 3d 11 00    	mov    %dl,0x113d40(%ecx)
  101a74:	c3                   	ret
  101a75:	8d 76 00             	lea    0x0(%esi),%esi
  101a78:	8b 15 24 3d 11 00    	mov    0x113d24,%edx
  101a7e:	85 d2                	test   %edx,%edx
  101a80:	75 b2                	jne    101a34 <keyboard_callback+0x94>
  101a82:	0f b6 c0             	movzbl %al,%eax
  101a85:	0f b6 90 c0 b0 10 00 	movzbl 0x10b0c0(%eax),%edx
  101a8c:	eb b0                	jmp    101a3e <keyboard_callback+0x9e>
  101a8e:	66 90                	xchg   %ax,%ax

00101a90 <keyboard_buffer_put>:
  101a90:	a1 30 3d 11 00       	mov    0x113d30,%eax
  101a95:	55                   	push   %ebp
  101a96:	8d 48 01             	lea    0x1(%eax),%ecx
  101a99:	c1 f9 1f             	sar    $0x1f,%ecx
  101a9c:	89 e5                	mov    %esp,%ebp
  101a9e:	c1 e9 18             	shr    $0x18,%ecx
  101aa1:	8b 55 08             	mov    0x8(%ebp),%edx
  101aa4:	8d 44 08 01          	lea    0x1(%eax,%ecx,1),%eax
  101aa8:	0f b6 c0             	movzbl %al,%eax
  101aab:	29 c8                	sub    %ecx,%eax
  101aad:	8b 0d 2c 3d 11 00    	mov    0x113d2c,%ecx
  101ab3:	39 c1                	cmp    %eax,%ecx
  101ab5:	74 11                	je     101ac8 <keyboard_buffer_put+0x38>
  101ab7:	8b 0d 30 3d 11 00    	mov    0x113d30,%ecx
  101abd:	a3 30 3d 11 00       	mov    %eax,0x113d30
  101ac2:	88 91 40 3d 11 00    	mov    %dl,0x113d40(%ecx)
  101ac8:	5d                   	pop    %ebp
  101ac9:	c3                   	ret
  101aca:	8d b6 00 00 00 00    	lea    0x0(%esi),%esi

00101ad0 <keyboard_buffer_read>:
  101ad0:	8b 0d 30 3d 11 00    	mov    0x113d30,%ecx
  101ad6:	8b 15 2c 3d 11 00    	mov    0x113d2c,%edx
  101adc:	39 d1                	cmp    %edx,%ecx
  101ade:	74 38                	je     101b18 <keyboard_buffer_read+0x48>
  101ae0:	55                   	push   %ebp
  101ae1:	a1 2c 3d 11 00       	mov    0x113d2c,%eax
  101ae6:	0f b6 90 40 3d 11 00 	movzbl 0x113d40(%eax),%edx
  101aed:	89 e5                	mov    %esp,%ebp
  101aef:	8b 45 08             	mov    0x8(%ebp),%eax
  101af2:	88 10                	mov    %dl,(%eax)
  101af4:	a1 2c 3d 11 00       	mov    0x113d2c,%eax
  101af9:	5d                   	pop    %ebp
  101afa:	83 c0 01             	add    $0x1,%eax
  101afd:	99                   	cltd
  101afe:	c1 ea 18             	shr    $0x18,%edx
  101b01:	01 d0                	add    %edx,%eax
  101b03:	0f b6 c0             	movzbl %al,%eax
  101b06:	29 d0                	sub    %edx,%eax
  101b08:	a3 2c 3d 11 00       	mov    %eax,0x113d2c
  101b0d:	b8 01 00 00 00       	mov    $0x1,%eax
  101b12:	c3                   	ret
  101b13:	2e 8d 74 26 00       	lea    %cs:0x0(%esi,%eiz,1),%esi
  101b18:	31 c0                	xor    %eax,%eax
  101b1a:	c3                   	ret
  101b1b:	2e 8d 74 26 00       	lea    %cs:0x0(%esi,%eiz,1),%esi

00101b20 <keyboard_buffer_available>:
  101b20:	a1 30 3d 11 00       	mov    0x113d30,%eax
  101b25:	8b 15 2c 3d 11 00    	mov    0x113d2c,%edx
  101b2b:	29 d0                	sub    %edx,%eax
  101b2d:	05 00 01 00 00       	add    $0x100,%eax
  101b32:	99                   	cltd
  101b33:	c1 ea 18             	shr    $0x18,%edx
  101b36:	01 d0                	add    %edx,%eax
  101b38:	0f b6 c0             	movzbl %al,%eax
  101b3b:	29 d0                	sub    %edx,%eax
  101b3d:	c3                   	ret
  101b3e:	66 90                	xchg   %ax,%ax

00101b40 <keyboard_init>:
  101b40:	55                   	push   %ebp
  101b41:	89 e5                	mov    %esp,%ebp
  101b43:	83 ec 10             	sub    $0x10,%esp
  101b46:	c7 05 30 3d 11 00 00 	movl   $0x0,0x113d30
  101b4d:	00 00 00 
  101b50:	68 a0 19 10 00       	push   $0x1019a0
  101b55:	6a 21                	push   $0x21
  101b57:	c7 05 2c 3d 11 00 00 	movl   $0x0,0x113d2c
  101b5e:	00 00 00 
  101b61:	e8 8a fa ff ff       	call   1015f0 <register_interrupt_handler>
  101b66:	83 c4 10             	add    $0x10,%esp
  101b69:	c9                   	leave
  101b6a:	c3                   	ret
  101b6b:	66 90                	xchg   %ax,%ax
  101b6d:	66 90                	xchg   %ax,%ax
  101b6f:	66 90                	xchg   %ax,%ax
  101b71:	66 90                	xchg   %ax,%ax
  101b73:	66 90                	xchg   %ax,%ax
  101b75:	66 90                	xchg   %ax,%ax
  101b77:	66 90                	xchg   %ax,%ax
  101b79:	66 90                	xchg   %ax,%ax
  101b7b:	66 90                	xchg   %ax,%ax
  101b7d:	66 90                	xchg   %ax,%ax
  101b7f:	90                   	nop

00101b80 <timer_callback>:
  101b80:	55                   	push   %ebp
  101b81:	89 e5                	mov    %esp,%ebp
  101b83:	56                   	push   %esi
  101b84:	53                   	push   %ebx
  101b85:	83 ec 10             	sub    $0x10,%esp
  101b88:	a1 50 3e 11 00       	mov    0x113e50,%eax
  101b8d:	83 c0 01             	add    $0x1,%eax
  101b90:	a3 50 3e 11 00       	mov    %eax,0x113e50
  101b95:	e8 46 39 00 00       	call   1054e0 <schedule_tick>
  101b9a:	a1 50 3e 11 00       	mov    0x113e50,%eax
  101b9f:	69 c0 29 5c 8f c2    	imul   $0xc28f5c29,%eax,%eax
  101ba5:	c1 c8 02             	ror    $0x2,%eax
  101ba8:	3d 28 5c 8f 02       	cmp    $0x28f5c28,%eax
  101bad:	77 1b                	ja     101bca <timer_callback+0x4a>
  101baf:	a1 4c 3e 11 00       	mov    0x113e4c,%eax
  101bb4:	83 c0 01             	add    $0x1,%eax
  101bb7:	a3 4c 3e 11 00       	mov    %eax,0x113e4c
  101bbc:	a1 4c 3e 11 00       	mov    0x113e4c,%eax
  101bc1:	83 f8 3b             	cmp    $0x3b,%eax
  101bc4:	0f 87 5e 01 00 00    	ja     101d28 <timer_callback+0x1a8>
  101bca:	e8 b1 81 00 00       	call   109d80 <sound_tick>
  101bcf:	a1 4c 3e 11 00       	mov    0x113e4c,%eax
  101bd4:	3b 05 40 3e 11 00    	cmp    0x113e40,%eax
  101bda:	0f 84 3a 01 00 00    	je     101d1a <timer_callback+0x19a>
  101be0:	a1 4c 3e 11 00       	mov    0x113e4c,%eax
  101be5:	8b 15 44 3e 11 00    	mov    0x113e44,%edx
  101beb:	bb cd cc cc cc       	mov    $0xcccccccd,%ebx
  101bf0:	c6 45 ee 3a          	movb   $0x3a,-0x12(%ebp)
  101bf4:	8b 35 44 3e 11 00    	mov    0x113e44,%esi
  101bfa:	c6 45 f1 3a          	movb   $0x3a,-0xf(%ebp)
  101bfe:	a3 40 3e 11 00       	mov    %eax,0x113e40
  101c03:	89 d0                	mov    %edx,%eax
  101c05:	f7 e3                	mul    %ebx
  101c07:	89 f0                	mov    %esi,%eax
  101c09:	c6 45 f4 00          	movb   $0x0,-0xc(%ebp)
  101c0d:	89 d1                	mov    %edx,%ecx
  101c0f:	f7 e3                	mul    %ebx
  101c11:	c1 e9 03             	shr    $0x3,%ecx
  101c14:	c1 ea 03             	shr    $0x3,%edx
  101c17:	8d 04 92             	lea    (%edx,%edx,4),%eax
  101c1a:	01 c0                	add    %eax,%eax
  101c1c:	29 c6                	sub    %eax,%esi
  101c1e:	8d 46 30             	lea    0x30(%esi),%eax
  101c21:	88 45 ed             	mov    %al,-0x13(%ebp)
  101c24:	a1 48 3e 11 00       	mov    0x113e48,%eax
  101c29:	8b 35 48 3e 11 00    	mov    0x113e48,%esi
  101c2f:	f7 e3                	mul    %ebx
  101c31:	89 f0                	mov    %esi,%eax
  101c33:	c1 ea 03             	shr    $0x3,%edx
  101c36:	83 c2 30             	add    $0x30,%edx
  101c39:	88 55 ef             	mov    %dl,-0x11(%ebp)
  101c3c:	f7 e3                	mul    %ebx
  101c3e:	c1 ea 03             	shr    $0x3,%edx
  101c41:	8d 04 92             	lea    (%edx,%edx,4),%eax
  101c44:	01 c0                	add    %eax,%eax
  101c46:	29 c6                	sub    %eax,%esi
  101c48:	8d 46 30             	lea    0x30(%esi),%eax
  101c4b:	88 45 f0             	mov    %al,-0x10(%ebp)
  101c4e:	a1 4c 3e 11 00       	mov    0x113e4c,%eax
  101c53:	8b 35 4c 3e 11 00    	mov    0x113e4c,%esi
  101c59:	f7 e3                	mul    %ebx
  101c5b:	89 f0                	mov    %esi,%eax
  101c5d:	c1 ea 03             	shr    $0x3,%edx
  101c60:	83 c2 30             	add    $0x30,%edx
  101c63:	88 55 f2             	mov    %dl,-0xe(%ebp)
  101c66:	f7 e3                	mul    %ebx
  101c68:	bb 20 0f 00 00       	mov    $0xf20,%ebx
  101c6d:	c1 ea 03             	shr    $0x3,%edx
  101c70:	8d 04 92             	lea    (%edx,%edx,4),%eax
  101c73:	ba 20 0f 00 00       	mov    $0xf20,%edx
  101c78:	01 c0                	add    %eax,%eax
  101c7a:	29 c6                	sub    %eax,%esi
  101c7c:	8d 46 30             	lea    0x30(%esi),%eax
  101c7f:	be 20 0f 00 00       	mov    $0xf20,%esi
  101c84:	88 45 f3             	mov    %al,-0xd(%ebp)
  101c87:	b8 20 0f 00 00       	mov    $0xf20,%eax
  101c8c:	66 a3 2c 81 0b 00    	mov    %ax,0xb812c
  101c92:	b8 20 0f 00 00       	mov    $0xf20,%eax
  101c97:	66 a3 34 81 0b 00    	mov    %ax,0xb8134
  101c9d:	b8 20 0f 00 00       	mov    $0xf20,%eax
  101ca2:	66 a3 36 81 0b 00    	mov    %ax,0xb8136
  101ca8:	b8 20 0f 00 00       	mov    $0xf20,%eax
  101cad:	66 a3 38 81 0b 00    	mov    %ax,0xb8138
  101cb3:	b8 20 0f 00 00       	mov    $0xf20,%eax
  101cb8:	66 89 15 2e 81 0b 00 	mov    %dx,0xb812e
  101cbf:	89 ca                	mov    %ecx,%edx
  101cc1:	66 a3 3a 81 0b 00    	mov    %ax,0xb813a
  101cc7:	b8 20 0f 00 00       	mov    $0xf20,%eax
  101ccc:	66 89 1d 30 81 0b 00 	mov    %bx,0xb8130
  101cd3:	66 89 35 32 81 0b 00 	mov    %si,0xb8132
  101cda:	66 a3 3c 81 0b 00    	mov    %ax,0xb813c
  101ce0:	80 c2 30             	add    $0x30,%dl
  101ce3:	74 35                	je     101d1a <timer_callback+0x19a>
  101ce5:	31 c0                	xor    %eax,%eax
  101ce7:	8d 4d ec             	lea    -0x14(%ebp),%ecx
  101cea:	8d b6 00 00 00 00    	lea    0x0(%esi),%esi
  101cf0:	2e 8d b4 26 00 00 00 	lea    %cs:0x0(%esi,%eiz,1),%esi
  101cf7:	00 
  101cf8:	2e 8d b4 26 00 00 00 	lea    %cs:0x0(%esi,%eiz,1),%esi
  101cff:	00 
  101d00:	66 0f be d2          	movsbw %dl,%dx
  101d04:	80 ce 0f             	or     $0xf,%dh
  101d07:	66 89 94 00 2c 81 0b 	mov    %dx,0xb812c(%eax,%eax,1)
  101d0e:	00 
  101d0f:	83 c0 01             	add    $0x1,%eax
  101d12:	0f b6 14 01          	movzbl (%ecx,%eax,1),%edx
  101d16:	84 d2                	test   %dl,%dl
  101d18:	75 e6                	jne    101d00 <timer_callback+0x180>
  101d1a:	83 c4 10             	add    $0x10,%esp
  101d1d:	5b                   	pop    %ebx
  101d1e:	5e                   	pop    %esi
  101d1f:	5d                   	pop    %ebp
  101d20:	c3                   	ret
  101d21:	8d b4 26 00 00 00 00 	lea    0x0(%esi,%eiz,1),%esi
  101d28:	c7 05 4c 3e 11 00 00 	movl   $0x0,0x113e4c
  101d2f:	00 00 00 
  101d32:	a1 48 3e 11 00       	mov    0x113e48,%eax
  101d37:	83 c0 01             	add    $0x1,%eax
  101d3a:	a3 48 3e 11 00       	mov    %eax,0x113e48
  101d3f:	a1 48 3e 11 00       	mov    0x113e48,%eax
  101d44:	83 f8 3b             	cmp    $0x3b,%eax
  101d47:	0f 86 7d fe ff ff    	jbe    101bca <timer_callback+0x4a>
  101d4d:	c7 05 48 3e 11 00 00 	movl   $0x0,0x113e48
  101d54:	00 00 00 
  101d57:	a1 44 3e 11 00       	mov    0x113e44,%eax
  101d5c:	83 c0 01             	add    $0x1,%eax
  101d5f:	a3 44 3e 11 00       	mov    %eax,0x113e44
  101d64:	a1 44 3e 11 00       	mov    0x113e44,%eax
  101d69:	83 f8 17             	cmp    $0x17,%eax
  101d6c:	0f 86 58 fe ff ff    	jbe    101bca <timer_callback+0x4a>
  101d72:	c7 05 44 3e 11 00 00 	movl   $0x0,0x113e44
  101d79:	00 00 00 
  101d7c:	e9 49 fe ff ff       	jmp    101bca <timer_callback+0x4a>
  101d81:	8d b4 26 00 00 00 00 	lea    0x0(%esi,%eiz,1),%esi
  101d88:	2e 8d b4 26 00 00 00 	lea    %cs:0x0(%esi,%eiz,1),%esi
  101d8f:	00 

00101d90 <timer_init>:
  101d90:	55                   	push   %ebp
  101d91:	89 e5                	mov    %esp,%ebp
  101d93:	83 ec 10             	sub    $0x10,%esp
  101d96:	68 80 1b 10 00       	push   $0x101b80
  101d9b:	6a 20                	push   $0x20
  101d9d:	e8 4e f8 ff ff       	call   1015f0 <register_interrupt_handler>
  101da2:	31 d2                	xor    %edx,%edx
  101da4:	b8 de 34 12 00       	mov    $0x1234de,%eax
  101da9:	f7 75 08             	divl   0x8(%ebp)
  101dac:	89 c1                	mov    %eax,%ecx
  101dae:	b8 36 00 00 00       	mov    $0x36,%eax
  101db3:	e6 43                	out    %al,$0x43
  101db5:	89 c8                	mov    %ecx,%eax
  101db7:	e6 40                	out    %al,$0x40
  101db9:	89 c8                	mov    %ecx,%eax
  101dbb:	c1 e8 08             	shr    $0x8,%eax
  101dbe:	e6 40                	out    %al,$0x40
  101dc0:	83 c4 10             	add    $0x10,%esp
  101dc3:	c9                   	leave
  101dc4:	c3                   	ret
  101dc5:	66 90                	xchg   %ax,%ax
  101dc7:	66 90                	xchg   %ax,%ax
  101dc9:	66 90                	xchg   %ax,%ax
  101dcb:	66 90                	xchg   %ax,%ax
  101dcd:	66 90                	xchg   %ax,%ax
  101dcf:	66 90                	xchg   %ax,%ax
  101dd1:	66 90                	xchg   %ax,%ax
  101dd3:	66 90                	xchg   %ax,%ax
  101dd5:	66 90                	xchg   %ax,%ax
  101dd7:	66 90                	xchg   %ax,%ax
  101dd9:	66 90                	xchg   %ax,%ax
  101ddb:	66 90                	xchg   %ax,%ax
  101ddd:	66 90                	xchg   %ax,%ax
  101ddf:	90                   	nop

00101de0 <mouse_callback>:
  101de0:	e4 60                	in     $0x60,%al
  101de2:	0f b6 0d 6b 3e 11 00 	movzbl 0x113e6b,%ecx
  101de9:	88 81 68 3e 11 00    	mov    %al,0x113e68(%ecx)
  101def:	80 f9 02             	cmp    $0x2,%cl
  101df2:	74 0c                	je     101e00 <mouse_callback+0x20>
  101df4:	8d 41 01             	lea    0x1(%ecx),%eax
  101df7:	a2 6b 3e 11 00       	mov    %al,0x113e6b
  101dfc:	c3                   	ret
  101dfd:	8d 76 00             	lea    0x0(%esi),%esi
  101e00:	55                   	push   %ebp
  101e01:	89 e5                	mov    %esp,%ebp
  101e03:	57                   	push   %edi
  101e04:	56                   	push   %esi
  101e05:	53                   	push   %ebx
  101e06:	83 ec 2c             	sub    $0x2c,%esp
  101e09:	0f b6 0d 68 3e 11 00 	movzbl 0x113e68,%ecx
  101e10:	c6 05 6b 3e 11 00 00 	movb   $0x0,0x113e6b
  101e17:	0f b6 15 69 3e 11 00 	movzbl 0x113e69,%edx
  101e1e:	0f b6 05 6a 3e 11 00 	movzbl 0x113e6a,%eax
  101e25:	f6 c1 10             	test   $0x10,%cl
  101e28:	75 16                	jne    101e40 <mouse_callback+0x60>
  101e2a:	83 e1 20             	and    $0x20,%ecx
  101e2d:	75 1b                	jne    101e4a <mouse_callback+0x6a>
  101e2f:	f7 d8                	neg    %eax
  101e31:	89 d7                	mov    %edx,%edi
  101e33:	66 09 c7             	or     %ax,%di
  101e36:	75 18                	jne    101e50 <mouse_callback+0x70>
  101e38:	83 c4 2c             	add    $0x2c,%esp
  101e3b:	5b                   	pop    %ebx
  101e3c:	5e                   	pop    %esi
  101e3d:	5f                   	pop    %edi
  101e3e:	5d                   	pop    %ebp
  101e3f:	c3                   	ret
  101e40:	66 81 ca 00 ff       	or     $0xff00,%dx
  101e45:	83 e1 20             	and    $0x20,%ecx
  101e48:	74 04                	je     101e4e <mouse_callback+0x6e>
  101e4a:	66 0d 00 ff          	or     $0xff00,%ax
  101e4e:	f7 d8                	neg    %eax
  101e50:	0f bf d2             	movswl %dx,%edx
  101e53:	98                   	cwtl
  101e54:	80 3d 80 42 11 00 00 	cmpb   $0x0,0x114280
  101e5b:	0f 85 e1 00 00 00    	jne    101f42 <mouse_callback+0x162>
  101e61:	03 15 64 3e 11 00    	add    0x113e64,%edx
  101e67:	03 05 60 3e 11 00    	add    0x113e60,%eax
  101e6d:	89 15 64 3e 11 00    	mov    %edx,0x113e64
  101e73:	a3 60 3e 11 00       	mov    %eax,0x113e60
  101e78:	83 fa 03             	cmp    $0x3,%edx
  101e7b:	7e 26                	jle    101ea3 <mouse_callback+0xc3>
  101e7d:	83 ea 04             	sub    $0x4,%edx
  101e80:	89 15 64 3e 11 00    	mov    %edx,0x113e64
  101e86:	83 f8 07             	cmp    $0x7,%eax
  101e89:	0f 8e 79 01 00 00    	jle    102008 <mouse_callback+0x228>
  101e8f:	ba 01 00 00 00       	mov    $0x1,%edx
  101e94:	83 e8 08             	sub    $0x8,%eax
  101e97:	a3 60 3e 11 00       	mov    %eax,0x113e60
  101e9c:	b8 01 00 00 00       	mov    $0x1,%eax
  101ea1:	eb 32                	jmp    101ed5 <mouse_callback+0xf5>
  101ea3:	83 fa fd             	cmp    $0xfffffffd,%edx
  101ea6:	0f 8d 21 02 00 00    	jge    1020cd <mouse_callback+0x2ed>
  101eac:	83 c2 04             	add    $0x4,%edx
  101eaf:	89 15 64 3e 11 00    	mov    %edx,0x113e64
  101eb5:	ba ff ff ff ff       	mov    $0xffffffff,%edx
  101eba:	83 f8 07             	cmp    $0x7,%eax
  101ebd:	7f d5                	jg     101e94 <mouse_callback+0xb4>
  101ebf:	83 f8 f9             	cmp    $0xfffffff9,%eax
  101ec2:	0f 8d 39 01 00 00    	jge    102001 <mouse_callback+0x221>
  101ec8:	83 c0 08             	add    $0x8,%eax
  101ecb:	a3 60 3e 11 00       	mov    %eax,0x113e60
  101ed0:	b8 ff ff ff ff       	mov    $0xffffffff,%eax
  101ed5:	80 3d 6c 3e 11 00 00 	cmpb   $0x0,0x113e6c
  101edc:	74 16                	je     101ef4 <mouse_callback+0x114>
  101ede:	8b 0d 08 e0 10 00    	mov    0x10e008,%ecx
  101ee4:	83 f9 4f             	cmp    $0x4f,%ecx
  101ee7:	0f 86 e9 00 00 00    	jbe    101fd6 <mouse_callback+0x1f6>
  101eed:	c6 05 6c 3e 11 00 00 	movb   $0x0,0x113e6c
  101ef4:	03 15 88 42 11 00    	add    0x114288,%edx
  101efa:	03 05 84 42 11 00    	add    0x114284,%eax
  101f00:	89 15 88 42 11 00    	mov    %edx,0x114288
  101f06:	a3 84 42 11 00       	mov    %eax,0x114284
  101f0b:	85 d2                	test   %edx,%edx
  101f0d:	0f 88 a5 00 00 00    	js     101fb8 <mouse_callback+0x1d8>
  101f13:	83 fa 4f             	cmp    $0x4f,%edx
  101f16:	7e 0a                	jle    101f22 <mouse_callback+0x142>
  101f18:	c7 05 88 42 11 00 4f 	movl   $0x4f,0x114288
  101f1f:	00 00 00 
  101f22:	85 c0                	test   %eax,%eax
  101f24:	0f 88 9d 00 00 00    	js     101fc7 <mouse_callback+0x1e7>
  101f2a:	83 f8 18             	cmp    $0x18,%eax
  101f2d:	0f 8e 05 ff ff ff    	jle    101e38 <mouse_callback+0x58>
  101f33:	c7 05 84 42 11 00 18 	movl   $0x18,0x114284
  101f3a:	00 00 00 
  101f3d:	e9 f6 fe ff ff       	jmp    101e38 <mouse_callback+0x58>
  101f42:	8b 1d 88 42 11 00    	mov    0x114288,%ebx
  101f48:	03 05 84 42 11 00    	add    0x114284,%eax
  101f4e:	89 c6                	mov    %eax,%esi
  101f50:	01 d3                	add    %edx,%ebx
  101f52:	e8 f9 03 00 00       	call   102350 <fb_get_info>
  101f57:	89 c2                	mov    %eax,%edx
  101f59:	31 c0                	xor    %eax,%eax
  101f5b:	85 db                	test   %ebx,%ebx
  101f5d:	0f 48 d8             	cmovs  %eax,%ebx
  101f60:	8b 42 04             	mov    0x4(%edx),%eax
  101f63:	8d 48 ff             	lea    -0x1(%eax),%ecx
  101f66:	83 e8 02             	sub    $0x2,%eax
  101f69:	39 cb                	cmp    %ecx,%ebx
  101f6b:	0f 4d d8             	cmovge %eax,%ebx
  101f6e:	31 c0                	xor    %eax,%eax
  101f70:	85 f6                	test   %esi,%esi
  101f72:	0f 49 c6             	cmovns %esi,%eax
  101f75:	89 c7                	mov    %eax,%edi
  101f77:	8b 42 08             	mov    0x8(%edx),%eax
  101f7a:	8d 50 ff             	lea    -0x1(%eax),%edx
  101f7d:	83 e8 02             	sub    $0x2,%eax
  101f80:	39 d7                	cmp    %edx,%edi
  101f82:	0f 4c c7             	cmovl  %edi,%eax
  101f85:	89 45 d4             	mov    %eax,-0x2c(%ebp)
  101f88:	39 1d 88 42 11 00    	cmp    %ebx,0x114288
  101f8e:	75 0c                	jne    101f9c <mouse_callback+0x1bc>
  101f90:	39 05 84 42 11 00    	cmp    %eax,0x114284
  101f96:	0f 84 9c fe ff ff    	je     101e38 <mouse_callback+0x58>
  101f9c:	80 3d 70 3e 11 00 00 	cmpb   $0x0,0x113e70
  101fa3:	75 6d                	jne    102012 <mouse_callback+0x232>
  101fa5:	8b 45 d4             	mov    -0x2c(%ebp),%eax
  101fa8:	89 1d 88 42 11 00    	mov    %ebx,0x114288
  101fae:	a3 84 42 11 00       	mov    %eax,0x114284
  101fb3:	e9 80 fe ff ff       	jmp    101e38 <mouse_callback+0x58>
  101fb8:	c7 05 88 42 11 00 00 	movl   $0x0,0x114288
  101fbf:	00 00 00 
  101fc2:	e9 5b ff ff ff       	jmp    101f22 <mouse_callback+0x142>
  101fc7:	c7 05 84 42 11 00 00 	movl   $0x0,0x114284
  101fce:	00 00 00 
  101fd1:	e9 62 fe ff ff       	jmp    101e38 <mouse_callback+0x58>
  101fd6:	8b 1d 04 e0 10 00    	mov    0x10e004,%ebx
  101fdc:	83 fb 18             	cmp    $0x18,%ebx
  101fdf:	0f 87 08 ff ff ff    	ja     101eed <mouse_callback+0x10d>
  101fe5:	8d 1c 9b             	lea    (%ebx,%ebx,4),%ebx
  101fe8:	c1 e3 04             	shl    $0x4,%ebx
  101feb:	01 d9                	add    %ebx,%ecx
  101fed:	0f b7 1d 6e 3e 11 00 	movzwl 0x113e6e,%ebx
  101ff4:	66 89 9c 09 00 80 0b 	mov    %bx,0xb8000(%ecx,%ecx,1)
  101ffb:	00 
  101ffc:	e9 ec fe ff ff       	jmp    101eed <mouse_callback+0x10d>
  102001:	31 c0                	xor    %eax,%eax
  102003:	e9 cd fe ff ff       	jmp    101ed5 <mouse_callback+0xf5>
  102008:	ba 01 00 00 00       	mov    $0x1,%edx
  10200d:	e9 ad fe ff ff       	jmp    101ebf <mouse_callback+0xdf>
  102012:	e8 39 03 00 00       	call   102350 <fb_get_info>
  102017:	8b 0d 10 e0 10 00    	mov    0x10e010,%ecx
  10201d:	89 5d d0             	mov    %ebx,-0x30(%ebp)
  102020:	89 c6                	mov    %eax,%esi
  102022:	b8 00 01 00 00       	mov    $0x100,%eax
  102027:	8b 3d 0c e0 10 00    	mov    0x10e00c,%edi
  10202d:	29 c8                	sub    %ecx,%eax
  10202f:	89 ca                	mov    %ecx,%edx
  102031:	89 4d dc             	mov    %ecx,-0x24(%ebp)
  102034:	83 c1 10             	add    $0x10,%ecx
  102037:	89 45 d8             	mov    %eax,-0x28(%ebp)
  10203a:	f7 da                	neg    %edx
  10203c:	8d 74 26 00          	lea    0x0(%esi,%eiz,1),%esi
  102040:	89 f8                	mov    %edi,%eax
  102042:	89 7d e0             	mov    %edi,-0x20(%ebp)
  102045:	f7 d0                	not    %eax
  102047:	c1 e8 1f             	shr    $0x1f,%eax
  10204a:	89 45 e4             	mov    %eax,-0x1c(%ebp)
  10204d:	8b 45 dc             	mov    -0x24(%ebp),%eax
  102050:	eb 15                	jmp    102067 <mouse_callback+0x287>
  102052:	8d b6 00 00 00 00    	lea    0x0(%esi),%esi
  102058:	2e 8d b4 26 00 00 00 	lea    %cs:0x0(%esi,%eiz,1),%esi
  10205f:	00 
  102060:	83 c0 01             	add    $0x1,%eax
  102063:	39 c1                	cmp    %eax,%ecx
  102065:	74 49                	je     1020b0 <mouse_callback+0x2d0>
  102067:	80 bc 02 00 b1 10 00 	cmpb   $0x0,0x10b100(%edx,%eax,1)
  10206e:	00 
  10206f:	74 ef                	je     102060 <mouse_callback+0x280>
  102071:	85 c0                	test   %eax,%eax
  102073:	78 eb                	js     102060 <mouse_callback+0x280>
  102075:	39 46 04             	cmp    %eax,0x4(%esi)
  102078:	7e e6                	jle    102060 <mouse_callback+0x280>
  10207a:	80 7d e4 00          	cmpb   $0x0,-0x1c(%ebp)
  10207e:	74 e0                	je     102060 <mouse_callback+0x280>
  102080:	8b 7d e0             	mov    -0x20(%ebp),%edi
  102083:	39 7e 08             	cmp    %edi,0x8(%esi)
  102086:	7e d8                	jle    102060 <mouse_callback+0x280>
  102088:	8b 5e 10             	mov    0x10(%esi),%ebx
  10208b:	0f af df             	imul   %edi,%ebx
  10208e:	8d 1c 83             	lea    (%ebx,%eax,4),%ebx
  102091:	03 1e                	add    (%esi),%ebx
  102093:	89 df                	mov    %ebx,%edi
  102095:	8d 1c 95 00 00 00 00 	lea    0x0(,%edx,4),%ebx
  10209c:	8b 9c 83 80 3e 11 00 	mov    0x113e80(%ebx,%eax,4),%ebx
  1020a3:	83 c0 01             	add    $0x1,%eax
  1020a6:	89 1f                	mov    %ebx,(%edi)
  1020a8:	39 c1                	cmp    %eax,%ecx
  1020aa:	75 bb                	jne    102067 <mouse_callback+0x287>
  1020ac:	8d 74 26 00          	lea    0x0(%esi,%eiz,1),%esi
  1020b0:	8b 7d e0             	mov    -0x20(%ebp),%edi
  1020b3:	83 c2 10             	add    $0x10,%edx
  1020b6:	83 c7 01             	add    $0x1,%edi
  1020b9:	3b 55 d8             	cmp    -0x28(%ebp),%edx
  1020bc:	75 82                	jne    102040 <mouse_callback+0x260>
  1020be:	c6 05 70 3e 11 00 00 	movb   $0x0,0x113e70
  1020c5:	8b 5d d0             	mov    -0x30(%ebp),%ebx
  1020c8:	e9 d8 fe ff ff       	jmp    101fa5 <mouse_callback+0x1c5>
  1020cd:	83 f8 07             	cmp    $0x7,%eax
  1020d0:	7f 10                	jg     1020e2 <mouse_callback+0x302>
  1020d2:	83 f8 f9             	cmp    $0xfffffff9,%eax
  1020d5:	0f 8d 5d fd ff ff    	jge    101e38 <mouse_callback+0x58>
  1020db:	31 d2                	xor    %edx,%edx
  1020dd:	e9 e6 fd ff ff       	jmp    101ec8 <mouse_callback+0xe8>
  1020e2:	31 d2                	xor    %edx,%edx
  1020e4:	e9 ab fd ff ff       	jmp    101e94 <mouse_callback+0xb4>
  1020e9:	8d b4 26 00 00 00 00 	lea    0x0(%esi,%eiz,1),%esi

001020f0 <mouse_init>:
  1020f0:	55                   	push   %ebp
  1020f1:	89 e5                	mov    %esp,%ebp
  1020f3:	83 ec 08             	sub    $0x8,%esp
  1020f6:	e8 25 01 00 00       	call   102220 <fb_is_graphical>
  1020fb:	a2 80 42 11 00       	mov    %al,0x114280
  102100:	89 c2                	mov    %eax,%edx
  102102:	8d b6 00 00 00 00    	lea    0x0(%esi),%esi
  102108:	2e 8d b4 26 00 00 00 	lea    %cs:0x0(%esi,%eiz,1),%esi
  10210f:	00 
  102110:	e4 64                	in     $0x64,%al
  102112:	a8 02                	test   $0x2,%al
  102114:	75 fa                	jne    102110 <mouse_init+0x20>
  102116:	b8 a8 ff ff ff       	mov    $0xffffffa8,%eax
  10211b:	e6 64                	out    %al,$0x64
  10211d:	8d 76 00             	lea    0x0(%esi),%esi
  102120:	e4 64                	in     $0x64,%al
  102122:	a8 02                	test   $0x2,%al
  102124:	75 fa                	jne    102120 <mouse_init+0x30>
  102126:	b8 20 00 00 00       	mov    $0x20,%eax
  10212b:	e6 64                	out    %al,$0x64
  10212d:	8d 76 00             	lea    0x0(%esi),%esi
  102130:	e4 64                	in     $0x64,%al
  102132:	a8 01                	test   $0x1,%al
  102134:	74 fa                	je     102130 <mouse_init+0x40>
  102136:	e4 60                	in     $0x60,%al
  102138:	83 c8 02             	or     $0x2,%eax
  10213b:	89 c1                	mov    %eax,%ecx
  10213d:	8d 76 00             	lea    0x0(%esi),%esi
  102140:	e4 64                	in     $0x64,%al
  102142:	a8 02                	test   $0x2,%al
  102144:	75 fa                	jne    102140 <mouse_init+0x50>
  102146:	b8 60 00 00 00       	mov    $0x60,%eax
  10214b:	e6 64                	out    %al,$0x64
  10214d:	8d 76 00             	lea    0x0(%esi),%esi
  102150:	e4 64                	in     $0x64,%al
  102152:	a8 02                	test   $0x2,%al
  102154:	75 fa                	jne    102150 <mouse_init+0x60>
  102156:	89 c8                	mov    %ecx,%eax
  102158:	e6 60                	out    %al,$0x60
  10215a:	8d b6 00 00 00 00    	lea    0x0(%esi),%esi
  102160:	e4 64                	in     $0x64,%al
  102162:	a8 02                	test   $0x2,%al
  102164:	75 fa                	jne    102160 <mouse_init+0x70>
  102166:	b8 d4 ff ff ff       	mov    $0xffffffd4,%eax
  10216b:	e6 64                	out    %al,$0x64
  10216d:	8d 76 00             	lea    0x0(%esi),%esi
  102170:	e4 64                	in     $0x64,%al
  102172:	a8 02                	test   $0x2,%al
  102174:	75 fa                	jne    102170 <mouse_init+0x80>
  102176:	b8 f6 ff ff ff       	mov    $0xfffffff6,%eax
  10217b:	e6 60                	out    %al,$0x60
  10217d:	8d 76 00             	lea    0x0(%esi),%esi
  102180:	e4 64                	in     $0x64,%al
  102182:	a8 01                	test   $0x1,%al
  102184:	74 fa                	je     102180 <mouse_init+0x90>
  102186:	e4 60                	in     $0x60,%al
  102188:	2e 8d b4 26 00 00 00 	lea    %cs:0x0(%esi,%eiz,1),%esi
  10218f:	00 
  102190:	e4 64                	in     $0x64,%al
  102192:	a8 02                	test   $0x2,%al
  102194:	75 fa                	jne    102190 <mouse_init+0xa0>
  102196:	b8 d4 ff ff ff       	mov    $0xffffffd4,%eax
  10219b:	e6 64                	out    %al,$0x64
  10219d:	8d 76 00             	lea    0x0(%esi),%esi
  1021a0:	e4 64                	in     $0x64,%al
  1021a2:	a8 02                	test   $0x2,%al
  1021a4:	75 fa                	jne    1021a0 <mouse_init+0xb0>
  1021a6:	b8 f4 ff ff ff       	mov    $0xfffffff4,%eax
  1021ab:	e6 60                	out    %al,$0x60
  1021ad:	8d 76 00             	lea    0x0(%esi),%esi
  1021b0:	e4 64                	in     $0x64,%al
  1021b2:	a8 01                	test   $0x1,%al
  1021b4:	74 fa                	je     1021b0 <mouse_init+0xc0>
  1021b6:	e4 60                	in     $0x60,%al
  1021b8:	84 d2                	test   %dl,%dl
  1021ba:	75 3c                	jne    1021f8 <mouse_init+0x108>
  1021bc:	c7 05 88 42 11 00 28 	movl   $0x28,0x114288
  1021c3:	00 00 00 
  1021c6:	c7 05 84 42 11 00 0c 	movl   $0xc,0x114284
  1021cd:	00 00 00 
  1021d0:	c6 05 6c 3e 11 00 00 	movb   $0x0,0x113e6c
  1021d7:	83 ec 08             	sub    $0x8,%esp
  1021da:	c6 05 6b 3e 11 00 00 	movb   $0x0,0x113e6b
  1021e1:	68 e0 1d 10 00       	push   $0x101de0
  1021e6:	6a 2c                	push   $0x2c
  1021e8:	e8 03 f4 ff ff       	call   1015f0 <register_interrupt_handler>
  1021ed:	83 c4 10             	add    $0x10,%esp
  1021f0:	c9                   	leave
  1021f1:	c3                   	ret
  1021f2:	8d b6 00 00 00 00    	lea    0x0(%esi),%esi
  1021f8:	e8 53 01 00 00       	call   102350 <fb_get_info>
  1021fd:	c6 05 70 3e 11 00 00 	movb   $0x0,0x113e70
  102204:	89 c2                	mov    %eax,%edx
  102206:	8b 40 04             	mov    0x4(%eax),%eax
  102209:	d1 e8                	shr    $1,%eax
  10220b:	a3 88 42 11 00       	mov    %eax,0x114288
  102210:	8b 42 08             	mov    0x8(%edx),%eax
  102213:	d1 e8                	shr    $1,%eax
  102215:	a3 84 42 11 00       	mov    %eax,0x114284
  10221a:	eb bb                	jmp    1021d7 <mouse_init+0xe7>
  10221c:	66 90                	xchg   %ax,%ax
  10221e:	66 90                	xchg   %ax,%ax

00102220 <fb_is_graphical>:
  102220:	0f b6 05 8c 42 11 00 	movzbl 0x11428c,%eax
  102227:	c3                   	ret
  102228:	2e 8d b4 26 00 00 00 	lea    %cs:0x0(%esi,%eiz,1),%esi
  10222f:	00 

00102230 <fb_putpixel>:
  102230:	80 3d 8c 42 11 00 00 	cmpb   $0x0,0x11428c
  102237:	74 4f                	je     102288 <fb_putpixel+0x58>
  102239:	55                   	push   %ebp
  10223a:	a1 94 42 11 00       	mov    0x114294,%eax
  10223f:	89 e5                	mov    %esp,%ebp
  102241:	39 45 08             	cmp    %eax,0x8(%ebp)
  102244:	73 3d                	jae    102283 <fb_putpixel+0x53>
  102246:	a1 98 42 11 00       	mov    0x114298,%eax
  10224b:	39 45 0c             	cmp    %eax,0xc(%ebp)
  10224e:	73 33                	jae    102283 <fb_putpixel+0x53>
  102250:	8b 45 0c             	mov    0xc(%ebp),%eax
  102253:	0f af 05 a0 42 11 00 	imul   0x1142a0,%eax
  10225a:	8b 55 08             	mov    0x8(%ebp),%edx
  10225d:	0f b6 4d 10          	movzbl 0x10(%ebp),%ecx
  102261:	8d 14 90             	lea    (%eax,%edx,4),%edx
  102264:	0f b6 45 18          	movzbl 0x18(%ebp),%eax
  102268:	03 15 90 42 11 00    	add    0x114290,%edx
  10226e:	c1 e0 10             	shl    $0x10,%eax
  102271:	09 c8                	or     %ecx,%eax
  102273:	0f b6 4d 14          	movzbl 0x14(%ebp),%ecx
  102277:	c1 e1 08             	shl    $0x8,%ecx
  10227a:	09 c8                	or     %ecx,%eax
  10227c:	0d 00 00 00 ff       	or     $0xff000000,%eax
  102281:	89 02                	mov    %eax,(%edx)
  102283:	5d                   	pop    %ebp
  102284:	c3                   	ret
  102285:	8d 76 00             	lea    0x0(%esi),%esi
  102288:	c3                   	ret
  102289:	8d b4 26 00 00 00 00 	lea    0x0(%esi,%eiz,1),%esi

00102290 <fb_fill_rect>:
  102290:	55                   	push   %ebp
  102291:	89 e5                	mov    %esp,%ebp
  102293:	57                   	push   %edi
  102294:	56                   	push   %esi
  102295:	53                   	push   %ebx
  102296:	83 ec 0c             	sub    $0xc,%esp
  102299:	0f b6 45 18          	movzbl 0x18(%ebp),%eax
  10229d:	8b 7d 08             	mov    0x8(%ebp),%edi
  1022a0:	8b 4d 0c             	mov    0xc(%ebp),%ecx
  1022a3:	88 45 f3             	mov    %al,-0xd(%ebp)
  1022a6:	0f b6 45 1c          	movzbl 0x1c(%ebp),%eax
  1022aa:	88 45 f2             	mov    %al,-0xe(%ebp)
  1022ad:	80 3d 8c 42 11 00 00 	cmpb   $0x0,0x11428c
  1022b4:	0f 84 82 00 00 00    	je     10233c <fb_fill_rect+0xac>
  1022ba:	8b 75 14             	mov    0x14(%ebp),%esi
  1022bd:	01 ce                	add    %ecx,%esi
  1022bf:	39 f1                	cmp    %esi,%ecx
  1022c1:	73 79                	jae    10233c <fb_fill_rect+0xac>
  1022c3:	0f b6 45 20          	movzbl 0x20(%ebp),%eax
  1022c7:	89 75 e8             	mov    %esi,-0x18(%ebp)
  1022ca:	c1 e0 10             	shl    $0x10,%eax
  1022cd:	89 45 ec             	mov    %eax,-0x14(%ebp)
  1022d0:	3b 0d 98 42 11 00    	cmp    0x114298,%ecx
  1022d6:	73 64                	jae    10233c <fb_fill_rect+0xac>
  1022d8:	8b 5d 10             	mov    0x10(%ebp),%ebx
  1022db:	89 f8                	mov    %edi,%eax
  1022dd:	01 fb                	add    %edi,%ebx
  1022df:	39 df                	cmp    %ebx,%edi
  1022e1:	73 51                	jae    102334 <fb_fill_rect+0xa4>
  1022e3:	89 7d 08             	mov    %edi,0x8(%ebp)
  1022e6:	eb 41                	jmp    102329 <fb_fill_rect+0x99>
  1022e8:	2e 8d b4 26 00 00 00 	lea    %cs:0x0(%esi,%eiz,1),%esi
  1022ef:	00 
  1022f0:	3b 0d 98 42 11 00    	cmp    0x114298,%ecx
  1022f6:	73 2a                	jae    102322 <fb_fill_rect+0x92>
  1022f8:	8b 15 a0 42 11 00    	mov    0x1142a0,%edx
  1022fe:	0f b6 7d f2          	movzbl -0xe(%ebp),%edi
  102302:	0f af d1             	imul   %ecx,%edx
  102305:	c1 e7 08             	shl    $0x8,%edi
  102308:	8d 34 82             	lea    (%edx,%eax,4),%esi
  10230b:	0f b6 55 f3          	movzbl -0xd(%ebp),%edx
  10230f:	0b 55 ec             	or     -0x14(%ebp),%edx
  102312:	09 fa                	or     %edi,%edx
  102314:	03 35 90 42 11 00    	add    0x114290,%esi
  10231a:	81 ca 00 00 00 ff    	or     $0xff000000,%edx
  102320:	89 16                	mov    %edx,(%esi)
  102322:	83 c0 01             	add    $0x1,%eax
  102325:	39 d8                	cmp    %ebx,%eax
  102327:	74 08                	je     102331 <fb_fill_rect+0xa1>
  102329:	3b 05 94 42 11 00    	cmp    0x114294,%eax
  10232f:	72 bf                	jb     1022f0 <fb_fill_rect+0x60>
  102331:	8b 7d 08             	mov    0x8(%ebp),%edi
  102334:	83 c1 01             	add    $0x1,%ecx
  102337:	3b 4d e8             	cmp    -0x18(%ebp),%ecx
  10233a:	75 94                	jne    1022d0 <fb_fill_rect+0x40>
  10233c:	83 c4 0c             	add    $0xc,%esp
  10233f:	5b                   	pop    %ebx
  102340:	5e                   	pop    %esi
  102341:	5f                   	pop    %edi
  102342:	5d                   	pop    %ebp
  102343:	c3                   	ret
  102344:	8d 74 26 00          	lea    0x0(%esi,%eiz,1),%esi
  102348:	2e 8d b4 26 00 00 00 	lea    %cs:0x0(%esi,%eiz,1),%esi
  10234f:	00 

00102350 <fb_get_info>:
  102350:	b8 90 42 11 00       	mov    $0x114290,%eax
  102355:	c3                   	ret
  102356:	66 90                	xchg   %ax,%ax
  102358:	2e 8d b4 26 00 00 00 	lea    %cs:0x0(%esi,%eiz,1),%esi
  10235f:	00 

00102360 <fb_clear>:
  102360:	55                   	push   %ebp
  102361:	89 e5                	mov    %esp,%ebp
  102363:	57                   	push   %edi
  102364:	56                   	push   %esi
  102365:	53                   	push   %ebx
  102366:	83 ec 0c             	sub    $0xc,%esp
  102369:	0f b6 45 08          	movzbl 0x8(%ebp),%eax
  10236d:	88 45 f3             	mov    %al,-0xd(%ebp)
  102370:	0f b6 45 0c          	movzbl 0xc(%ebp),%eax
  102374:	88 45 f2             	mov    %al,-0xe(%ebp)
  102377:	80 3d 8c 42 11 00 00 	cmpb   $0x0,0x11428c
  10237e:	0f 84 85 00 00 00    	je     102409 <fb_clear+0xa9>
  102384:	8b 1d 98 42 11 00    	mov    0x114298,%ebx
  10238a:	85 db                	test   %ebx,%ebx
  10238c:	74 7b                	je     102409 <fb_clear+0xa9>
  10238e:	8b 3d 94 42 11 00    	mov    0x114294,%edi
  102394:	85 ff                	test   %edi,%edi
  102396:	74 79                	je     102411 <fb_clear+0xb1>
  102398:	0f b6 45 10          	movzbl 0x10(%ebp),%eax
  10239c:	89 5d e8             	mov    %ebx,-0x18(%ebp)
  10239f:	31 c9                	xor    %ecx,%ecx
  1023a1:	c1 e0 10             	shl    $0x10,%eax
  1023a4:	89 45 ec             	mov    %eax,-0x14(%ebp)
  1023a7:	90                   	nop
  1023a8:	2e 8d b4 26 00 00 00 	lea    %cs:0x0(%esi,%eiz,1),%esi
  1023af:	00 
  1023b0:	31 c0                	xor    %eax,%eax
  1023b2:	eb 3d                	jmp    1023f1 <fb_clear+0x91>
  1023b4:	8d 74 26 00          	lea    0x0(%esi,%eiz,1),%esi
  1023b8:	3b 0d 98 42 11 00    	cmp    0x114298,%ecx
  1023be:	73 2a                	jae    1023ea <fb_clear+0x8a>
  1023c0:	8b 15 a0 42 11 00    	mov    0x1142a0,%edx
  1023c6:	0f b6 75 f2          	movzbl -0xe(%ebp),%esi
  1023ca:	0f af d1             	imul   %ecx,%edx
  1023cd:	c1 e6 08             	shl    $0x8,%esi
  1023d0:	8d 1c 82             	lea    (%edx,%eax,4),%ebx
  1023d3:	0f b6 55 f3          	movzbl -0xd(%ebp),%edx
  1023d7:	0b 55 ec             	or     -0x14(%ebp),%edx
  1023da:	09 f2                	or     %esi,%edx
  1023dc:	03 1d 90 42 11 00    	add    0x114290,%ebx
  1023e2:	81 ca 00 00 00 ff    	or     $0xff000000,%edx
  1023e8:	89 13                	mov    %edx,(%ebx)
  1023ea:	83 c0 01             	add    $0x1,%eax
  1023ed:	39 c7                	cmp    %eax,%edi
  1023ef:	74 08                	je     1023f9 <fb_clear+0x99>
  1023f1:	3b 05 94 42 11 00    	cmp    0x114294,%eax
  1023f7:	72 bf                	jb     1023b8 <fb_clear+0x58>
  1023f9:	83 c1 01             	add    $0x1,%ecx
  1023fc:	39 4d e8             	cmp    %ecx,-0x18(%ebp)
  1023ff:	74 08                	je     102409 <fb_clear+0xa9>
  102401:	3b 0d 98 42 11 00    	cmp    0x114298,%ecx
  102407:	72 a7                	jb     1023b0 <fb_clear+0x50>
  102409:	83 c4 0c             	add    $0xc,%esp
  10240c:	5b                   	pop    %ebx
  10240d:	5e                   	pop    %esi
  10240e:	5f                   	pop    %edi
  10240f:	5d                   	pop    %ebp
  102410:	c3                   	ret
  102411:	8d 47 01             	lea    0x1(%edi),%eax
  102414:	39 c3                	cmp    %eax,%ebx
  102416:	74 f1                	je     102409 <fb_clear+0xa9>
  102418:	3b 05 98 42 11 00    	cmp    0x114298,%eax
  10241e:	73 e9                	jae    102409 <fb_clear+0xa9>
  102420:	83 c7 02             	add    $0x2,%edi
  102423:	39 fb                	cmp    %edi,%ebx
  102425:	74 e2                	je     102409 <fb_clear+0xa9>
  102427:	3b 3d 98 42 11 00    	cmp    0x114298,%edi
  10242d:	72 e2                	jb     102411 <fb_clear+0xb1>
  10242f:	eb d8                	jmp    102409 <fb_clear+0xa9>
  102431:	8d b4 26 00 00 00 00 	lea    0x0(%esi,%eiz,1),%esi
  102438:	2e 8d b4 26 00 00 00 	lea    %cs:0x0(%esi,%eiz,1),%esi
  10243f:	00 

00102440 <framebuffer_init>:
  102440:	55                   	push   %ebp
  102441:	89 e5                	mov    %esp,%ebp
  102443:	53                   	push   %ebx
  102444:	83 ec 04             	sub    $0x4,%esp
  102447:	a1 00 e0 10 00       	mov    0x10e000,%eax
  10244c:	8b 50 64             	mov    0x64(%eax),%edx
  10244f:	8b 48 58             	mov    0x58(%eax),%ecx
  102452:	89 15 94 42 11 00    	mov    %edx,0x114294
  102458:	8b 50 68             	mov    0x68(%eax),%edx
  10245b:	89 0d 90 42 11 00    	mov    %ecx,0x114290
  102461:	89 15 98 42 11 00    	mov    %edx,0x114298
  102467:	8b 50 6c             	mov    0x6c(%eax),%edx
  10246a:	8b 40 60             	mov    0x60(%eax),%eax
  10246d:	0f b6 da             	movzbl %dl,%ebx
  102470:	89 1d 9c 42 11 00    	mov    %ebx,0x11429c
  102476:	a3 a0 42 11 00       	mov    %eax,0x1142a0
  10247b:	84 d2                	test   %dl,%dl
  10247d:	75 41                	jne    1024c0 <framebuffer_init+0x80>
  10247f:	85 c9                	test   %ecx,%ecx
  102481:	74 3d                	je     1024c0 <framebuffer_init+0x80>
  102483:	83 ec 04             	sub    $0x4,%esp
  102486:	b8 08 08 00 00       	mov    $0x808,%eax
  10248b:	c6 05 8c 42 11 00 01 	movb   $0x1,0x11428c
  102492:	6a 00                	push   $0x0
  102494:	6a 00                	push   $0x0
  102496:	6a 00                	push   $0x0
  102498:	66 a3 a4 42 11 00    	mov    %ax,0x1142a4
  10249e:	c6 05 a6 42 11 00 08 	movb   $0x8,0x1142a6
  1024a5:	e8 b6 fe ff ff       	call   102360 <fb_clear>
  1024aa:	c7 04 24 a4 cb 10 00 	movl   $0x10cba4,(%esp)
  1024b1:	e8 5a e7 ff ff       	call   100c10 <terminal_writestring>
  1024b6:	8b 5d fc             	mov    -0x4(%ebp),%ebx
  1024b9:	83 c4 10             	add    $0x10,%esp
  1024bc:	c9                   	leave
  1024bd:	c3                   	ret
  1024be:	66 90                	xchg   %ax,%ax
  1024c0:	83 ec 0c             	sub    $0xc,%esp
  1024c3:	c6 05 8c 42 11 00 00 	movb   $0x0,0x11428c
  1024ca:	68 68 cb 10 00       	push   $0x10cb68
  1024cf:	e8 3c e7 ff ff       	call   100c10 <terminal_writestring>
  1024d4:	8b 5d fc             	mov    -0x4(%ebp),%ebx
  1024d7:	83 c4 10             	add    $0x10,%esp
  1024da:	c9                   	leave
  1024db:	c3                   	ret
  1024dc:	66 90                	xchg   %ax,%ax
  1024de:	66 90                	xchg   %ax,%ax

001024e0 <dma_init>:
  1024e0:	55                   	push   %ebp
  1024e1:	89 e5                	mov    %esp,%ebp
  1024e3:	83 ec 14             	sub    $0x14,%esp
  1024e6:	68 d4 cb 10 00       	push   $0x10cbd4
  1024eb:	e8 20 e7 ff ff       	call   100c10 <terminal_writestring>
  1024f0:	83 c4 0c             	add    $0xc,%esp
  1024f3:	68 e0 00 00 00       	push   $0xe0
  1024f8:	6a 00                	push   $0x0
  1024fa:	68 e0 42 11 00       	push   $0x1142e0
  1024ff:	e8 9c df ff ff       	call   1004a0 <memset>
  102504:	b8 e0 42 11 00       	mov    $0x1142e0,%eax
  102509:	83 c4 10             	add    $0x10,%esp
  10250c:	31 d2                	xor    %edx,%edx
  10250e:	66 90                	xchg   %ax,%ax
  102510:	2e 8d b4 26 00 00 00 	lea    %cs:0x0(%esi,%eiz,1),%esi
  102517:	00 
  102518:	2e 8d b4 26 00 00 00 	lea    %cs:0x0(%esi,%eiz,1),%esi
  10251f:	00 
  102520:	88 10                	mov    %dl,(%eax)
  102522:	83 c2 01             	add    $0x1,%edx
  102525:	83 c0 1c             	add    $0x1c,%eax
  102528:	c6 40 e5 00          	movb   $0x0,-0x1b(%eax)
  10252c:	c7 40 e8 00 00 00 00 	movl   $0x0,-0x18(%eax)
  102533:	83 fa 08             	cmp    $0x8,%edx
  102536:	75 e8                	jne    102520 <dma_init+0x40>
  102538:	c6 05 51 43 11 00 01 	movb   $0x1,0x114351
  10253f:	b8 ff ff ff ff       	mov    $0xffffffff,%eax
  102544:	c7 05 54 43 11 00 01 	movl   $0x1,0x114354
  10254b:	00 00 00 
  10254e:	e6 0d                	out    %al,$0xd
  102550:	e6 0e                	out    %al,$0xe
  102552:	31 c0                	xor    %eax,%eax
  102554:	e6 08                	out    %al,$0x8
  102556:	b8 ff ff ff ff       	mov    $0xffffffff,%eax
  10255b:	e6 da                	out    %al,$0xda
  10255d:	e6 dc                	out    %al,$0xdc
  10255f:	31 c0                	xor    %eax,%eax
  102561:	e6 d0                	out    %al,$0xd0
  102563:	b8 c0 ff ff ff       	mov    $0xffffffc0,%eax
  102568:	e6 d6                	out    %al,$0xd6
  10256a:	b8 04 00 00 00       	mov    $0x4,%eax
  10256f:	e6 d4                	out    %al,$0xd4
  102571:	83 ec 0c             	sub    $0xc,%esp
  102574:	68 09 bd 10 00       	push   $0x10bd09
  102579:	e8 92 e6 ff ff       	call   100c10 <terminal_writestring>
  10257e:	c7 04 24 fc cb 10 00 	movl   $0x10cbfc,(%esp)
  102585:	e8 86 e6 ff ff       	call   100c10 <terminal_writestring>
  10258a:	c7 04 24 20 cc 10 00 	movl   $0x10cc20,(%esp)
  102591:	e8 7a e6 ff ff       	call   100c10 <terminal_writestring>
  102596:	c7 04 24 44 cc 10 00 	movl   $0x10cc44,(%esp)
  10259d:	e8 6e e6 ff ff       	call   100c10 <terminal_writestring>
  1025a2:	c7 04 24 68 cc 10 00 	movl   $0x10cc68,(%esp)
  1025a9:	e8 62 e6 ff ff       	call   100c10 <terminal_writestring>
  1025ae:	c7 04 24 8c cc 10 00 	movl   $0x10cc8c,(%esp)
  1025b5:	e8 56 e6 ff ff       	call   100c10 <terminal_writestring>
  1025ba:	83 c4 10             	add    $0x10,%esp
  1025bd:	c9                   	leave
  1025be:	c3                   	ret
  1025bf:	90                   	nop

001025c0 <dma_channel_alloc>:
  1025c0:	55                   	push   %ebp
  1025c1:	89 e5                	mov    %esp,%ebp
  1025c3:	83 ec 28             	sub    $0x28,%esp
  1025c6:	8b 45 08             	mov    0x8(%ebp),%eax
  1025c9:	3c 04                	cmp    $0x4,%al
  1025cb:	74 2b                	je     1025f8 <dma_channel_alloc+0x38>
  1025cd:	3c 07                	cmp    $0x7,%al
  1025cf:	77 27                	ja     1025f8 <dma_channel_alloc+0x38>
  1025d1:	0f b6 c0             	movzbl %al,%eax
  1025d4:	6b d0 1c             	imul   $0x1c,%eax,%edx
  1025d7:	80 ba e1 42 11 00 00 	cmpb   $0x0,0x1142e1(%edx)
  1025de:	75 1f                	jne    1025ff <dma_channel_alloc+0x3f>
  1025e0:	c6 82 e1 42 11 00 01 	movb   $0x1,0x1142e1(%edx)
  1025e7:	31 c0                	xor    %eax,%eax
  1025e9:	c7 82 e4 42 11 00 00 	movl   $0x0,0x1142e4(%edx)
  1025f0:	00 00 00 
  1025f3:	c9                   	leave
  1025f4:	c3                   	ret
  1025f5:	8d 76 00             	lea    0x0(%esi),%esi
  1025f8:	c9                   	leave
  1025f9:	b8 ff ff ff ff       	mov    $0xffffffff,%eax
  1025fe:	c3                   	ret
  1025ff:	83 ec 0c             	sub    $0xc,%esp
  102602:	89 45 e4             	mov    %eax,-0x1c(%ebp)
  102605:	68 26 bd 10 00       	push   $0x10bd26
  10260a:	e8 01 e6 ff ff       	call   100c10 <terminal_writestring>
  10260f:	8b 45 e4             	mov    -0x1c(%ebp),%eax
  102612:	83 c4 0c             	add    $0xc,%esp
  102615:	8d 55 f0             	lea    -0x10(%ebp),%edx
  102618:	6a 0a                	push   $0xa
  10261a:	52                   	push   %edx
  10261b:	50                   	push   %eax
  10261c:	e8 0f e3 ff ff       	call   100930 <itoa>
  102621:	8d 55 f0             	lea    -0x10(%ebp),%edx
  102624:	89 14 24             	mov    %edx,(%esp)
  102627:	e8 e4 e5 ff ff       	call   100c10 <terminal_writestring>
  10262c:	c7 04 24 42 bd 10 00 	movl   $0x10bd42,(%esp)
  102633:	e8 d8 e5 ff ff       	call   100c10 <terminal_writestring>
  102638:	83 c4 10             	add    $0x10,%esp
  10263b:	b8 fd ff ff ff       	mov    $0xfffffffd,%eax
  102640:	c9                   	leave
  102641:	c3                   	ret
  102642:	8d b6 00 00 00 00    	lea    0x0(%esi),%esi
  102648:	2e 8d b4 26 00 00 00 	lea    %cs:0x0(%esi,%eiz,1),%esi
  10264f:	00 

00102650 <dma_channel_free>:
  102650:	55                   	push   %ebp
  102651:	89 e5                	mov    %esp,%ebp
  102653:	8b 45 08             	mov    0x8(%ebp),%eax
  102656:	3c 07                	cmp    $0x7,%al
  102658:	77 2c                	ja     102686 <dma_channel_free+0x36>
  10265a:	3c 04                	cmp    $0x4,%al
  10265c:	74 28                	je     102686 <dma_channel_free+0x36>
  10265e:	19 d2                	sbb    %edx,%edx
  102660:	0f b6 c8             	movzbl %al,%ecx
  102663:	83 e0 03             	and    $0x3,%eax
  102666:	80 e2 36             	and    $0x36,%dl
  102669:	83 c8 04             	or     $0x4,%eax
  10266c:	66 81 c2 d4 00       	add    $0xd4,%dx
  102671:	ee                   	out    %al,(%dx)
  102672:	6b c9 1c             	imul   $0x1c,%ecx,%ecx
  102675:	c7 81 e4 42 11 00 00 	movl   $0x0,0x1142e4(%ecx)
  10267c:	00 00 00 
  10267f:	c6 81 e1 42 11 00 00 	movb   $0x0,0x1142e1(%ecx)
  102686:	5d                   	pop    %ebp
  102687:	c3                   	ret
  102688:	2e 8d b4 26 00 00 00 	lea    %cs:0x0(%esi,%eiz,1),%esi
  10268f:	00 

00102690 <dma_setup_transfer>:
  102690:	55                   	push   %ebp
  102691:	89 e5                	mov    %esp,%ebp
  102693:	57                   	push   %edi
  102694:	56                   	push   %esi
  102695:	53                   	push   %ebx
  102696:	83 ec 1c             	sub    $0x1c,%esp
  102699:	8b 45 1c             	mov    0x1c(%ebp),%eax
  10269c:	8b 4d 08             	mov    0x8(%ebp),%ecx
  10269f:	8b 5d 0c             	mov    0xc(%ebp),%ebx
  1026a2:	89 45 e4             	mov    %eax,-0x1c(%ebp)
  1026a5:	80 f9 07             	cmp    $0x7,%cl
  1026a8:	0f 87 b2 01 00 00    	ja     102860 <dma_setup_transfer+0x1d0>
  1026ae:	80 f9 04             	cmp    $0x4,%cl
  1026b1:	0f 84 a9 01 00 00    	je     102860 <dma_setup_transfer+0x1d0>
  1026b7:	0f b6 f9             	movzbl %cl,%edi
  1026ba:	6b d7 1c             	imul   $0x1c,%edi,%edx
  1026bd:	8d 82 e0 42 11 00    	lea    0x1142e0(%edx),%eax
  1026c3:	80 ba e1 42 11 00 00 	cmpb   $0x0,0x1142e1(%edx)
  1026ca:	0f 84 90 01 00 00    	je     102860 <dma_setup_transfer+0x1d0>
  1026d0:	81 fb ff ff ff 00    	cmp    $0xffffff,%ebx
  1026d6:	0f 87 94 01 00 00    	ja     102870 <dma_setup_transfer+0x1e0>
  1026dc:	8b 55 10             	mov    0x10(%ebp),%edx
  1026df:	01 da                	add    %ebx,%edx
  1026e1:	81 fa 00 00 00 01    	cmp    $0x1000000,%edx
  1026e7:	0f 87 83 01 00 00    	ja     102870 <dma_setup_transfer+0x1e0>
  1026ed:	8b 75 10             	mov    0x10(%ebp),%esi
  1026f0:	8d 56 ff             	lea    -0x1(%esi),%edx
  1026f3:	81 fa ff ff 00 00    	cmp    $0xffff,%edx
  1026f9:	0f 87 46 01 00 00    	ja     102845 <dma_setup_transfer+0x1b5>
  1026ff:	8b 75 10             	mov    0x10(%ebp),%esi
  102702:	0f b6 55 e4          	movzbl -0x1c(%ebp),%edx
  102706:	89 58 08             	mov    %ebx,0x8(%eax)
  102709:	89 70 0c             	mov    %esi,0xc(%eax)
  10270c:	8b 75 14             	mov    0x14(%ebp),%esi
  10270f:	88 50 18             	mov    %dl,0x18(%eax)
  102712:	89 70 10             	mov    %esi,0x10(%eax)
  102715:	8b 75 18             	mov    0x18(%ebp),%esi
  102718:	89 70 14             	mov    %esi,0x14(%eax)
  10271b:	0f b6 87 00 b2 10 00 	movzbl 0x10b200(%edi),%eax
  102722:	66 89 45 e2          	mov    %ax,-0x1e(%ebp)
  102726:	89 c2                	mov    %eax,%edx
  102728:	80 f9 03             	cmp    $0x3,%cl
  10272b:	0f 86 af 00 00 00    	jbe    1027e0 <dma_setup_transfer+0x150>
  102731:	89 ce                	mov    %ecx,%esi
  102733:	83 e6 03             	and    $0x3,%esi
  102736:	89 f0                	mov    %esi,%eax
  102738:	83 c8 04             	or     $0x4,%eax
  10273b:	e6 d4                	out    %al,$0xd4
  10273d:	b8 ff ff ff ff       	mov    $0xffffffff,%eax
  102742:	e6 d8                	out    %al,$0xd8
  102744:	84 d2                	test   %dl,%dl
  102746:	74 1e                	je     102766 <dma_setup_transfer+0xd6>
  102748:	8d 56 60             	lea    0x60(%esi),%edx
  10274b:	0f b6 d2             	movzbl %dl,%edx
  10274e:	01 d2                	add    %edx,%edx
  102750:	e6 d8                	out    %al,$0xd8
  102752:	89 d8                	mov    %ebx,%eax
  102754:	ee                   	out    %al,(%dx)
  102755:	89 d8                	mov    %ebx,%eax
  102757:	66 c1 e8 08          	shr    $0x8,%ax
  10275b:	ee                   	out    %al,(%dx)
  10275c:	89 d8                	mov    %ebx,%eax
  10275e:	0f b7 55 e2          	movzwl -0x1e(%ebp),%edx
  102762:	c1 e8 10             	shr    $0x10,%eax
  102765:	ee                   	out    %al,(%dx)
  102766:	8d 5e 61             	lea    0x61(%esi),%ebx
  102769:	ba d8 00 00 00       	mov    $0xd8,%edx
  10276e:	0f b6 db             	movzbl %bl,%ebx
  102771:	8d 04 1b             	lea    (%ebx,%ebx,1),%eax
  102774:	bb d4 00 00 00       	mov    $0xd4,%ebx
  102779:	66 89 45 e2          	mov    %ax,-0x1e(%ebp)
  10277d:	66 89 5d e0          	mov    %bx,-0x20(%ebp)
  102781:	0f b7 45 10          	movzwl 0x10(%ebp),%eax
  102785:	8d 58 ff             	lea    -0x1(%eax),%ebx
  102788:	b8 ff ff ff ff       	mov    $0xffffffff,%eax
  10278d:	ee                   	out    %al,(%dx)
  10278e:	0f b7 55 e2          	movzwl -0x1e(%ebp),%edx
  102792:	89 d8                	mov    %ebx,%eax
  102794:	ee                   	out    %al,(%dx)
  102795:	89 d8                	mov    %ebx,%eax
  102797:	66 c1 e8 08          	shr    $0x8,%ax
  10279b:	ee                   	out    %al,(%dx)
  10279c:	0f b6 45 e4          	movzbl -0x1c(%ebp),%eax
  1027a0:	c1 e0 04             	shl    $0x4,%eax
  1027a3:	0a 45 18             	or     0x18(%ebp),%al
  1027a6:	84 c9                	test   %cl,%cl
  1027a8:	0f 85 82 00 00 00    	jne    102830 <dma_setup_transfer+0x1a0>
  1027ae:	8b 55 14             	mov    0x14(%ebp),%edx
  1027b1:	85 d2                	test   %edx,%edx
  1027b3:	75 7b                	jne    102830 <dma_setup_transfer+0x1a0>
  1027b5:	83 c8 08             	or     $0x8,%eax
  1027b8:	ba 0b 00 00 00       	mov    $0xb,%edx
  1027bd:	09 f0                	or     %esi,%eax
  1027bf:	ee                   	out    %al,(%dx)
  1027c0:	89 f0                	mov    %esi,%eax
  1027c2:	0f b7 55 e0          	movzwl -0x20(%ebp),%edx
  1027c6:	ee                   	out    %al,(%dx)
  1027c7:	6b c7 1c             	imul   $0x1c,%edi,%eax
  1027ca:	c7 80 e4 42 11 00 00 	movl   $0x0,0x1142e4(%eax)
  1027d1:	00 00 00 
  1027d4:	31 c0                	xor    %eax,%eax
  1027d6:	8d 65 f4             	lea    -0xc(%ebp),%esp
  1027d9:	5b                   	pop    %ebx
  1027da:	5e                   	pop    %esi
  1027db:	5f                   	pop    %edi
  1027dc:	5d                   	pop    %ebp
  1027dd:	c3                   	ret
  1027de:	66 90                	xchg   %ax,%ax
  1027e0:	89 c8                	mov    %ecx,%eax
  1027e2:	83 c8 04             	or     $0x4,%eax
  1027e5:	e6 0a                	out    %al,$0xa
  1027e7:	b8 ff ff ff ff       	mov    $0xffffffff,%eax
  1027ec:	e6 0c                	out    %al,$0xc
  1027ee:	0f b6 d1             	movzbl %cl,%edx
  1027f1:	8d 34 12             	lea    (%edx,%edx,1),%esi
  1027f4:	66 83 7d e2 00       	cmpw   $0x0,-0x1e(%ebp)
  1027f9:	74 18                	je     102813 <dma_setup_transfer+0x183>
  1027fb:	e6 0c                	out    %al,$0xc
  1027fd:	89 d8                	mov    %ebx,%eax
  1027ff:	89 f2                	mov    %esi,%edx
  102801:	ee                   	out    %al,(%dx)
  102802:	89 d8                	mov    %ebx,%eax
  102804:	66 c1 e8 08          	shr    $0x8,%ax
  102808:	ee                   	out    %al,(%dx)
  102809:	89 d8                	mov    %ebx,%eax
  10280b:	0f b7 55 e2          	movzwl -0x1e(%ebp),%edx
  10280f:	c1 e8 10             	shr    $0x10,%eax
  102812:	ee                   	out    %al,(%dx)
  102813:	8d 46 01             	lea    0x1(%esi),%eax
  102816:	ba 0c 00 00 00       	mov    $0xc,%edx
  10281b:	89 ce                	mov    %ecx,%esi
  10281d:	66 89 45 e2          	mov    %ax,-0x1e(%ebp)
  102821:	b8 0a 00 00 00       	mov    $0xa,%eax
  102826:	66 89 45 e0          	mov    %ax,-0x20(%ebp)
  10282a:	e9 52 ff ff ff       	jmp    102781 <dma_setup_transfer+0xf1>
  10282f:	90                   	nop
  102830:	0a 45 14             	or     0x14(%ebp),%al
  102833:	80 f9 04             	cmp    $0x4,%cl
  102836:	19 d2                	sbb    %edx,%edx
  102838:	80 e2 35             	and    $0x35,%dl
  10283b:	66 81 c2 d6 00       	add    $0xd6,%dx
  102840:	e9 78 ff ff ff       	jmp    1027bd <dma_setup_transfer+0x12d>
  102845:	83 ec 0c             	sub    $0xc,%esp
  102848:	68 e8 cc 10 00       	push   $0x10cce8
  10284d:	e8 be e3 ff ff       	call   100c10 <terminal_writestring>
  102852:	83 c4 10             	add    $0x10,%esp
  102855:	8d 76 00             	lea    0x0(%esi),%esi
  102858:	2e 8d b4 26 00 00 00 	lea    %cs:0x0(%esi,%eiz,1),%esi
  10285f:	00 
  102860:	b8 ff ff ff ff       	mov    $0xffffffff,%eax
  102865:	e9 6c ff ff ff       	jmp    1027d6 <dma_setup_transfer+0x146>
  10286a:	8d b6 00 00 00 00    	lea    0x0(%esi),%esi
  102870:	83 ec 0c             	sub    $0xc,%esp
  102873:	68 bc cc 10 00       	push   $0x10ccbc
  102878:	e8 93 e3 ff ff       	call   100c10 <terminal_writestring>
  10287d:	83 c4 10             	add    $0x10,%esp
  102880:	b8 fe ff ff ff       	mov    $0xfffffffe,%eax
  102885:	e9 4c ff ff ff       	jmp    1027d6 <dma_setup_transfer+0x146>
  10288a:	8d b6 00 00 00 00    	lea    0x0(%esi),%esi

00102890 <dma_start_transfer>:
  102890:	55                   	push   %ebp
  102891:	89 e5                	mov    %esp,%ebp
  102893:	8b 45 08             	mov    0x8(%ebp),%eax
  102896:	3c 07                	cmp    $0x7,%al
  102898:	77 36                	ja     1028d0 <dma_start_transfer+0x40>
  10289a:	3c 04                	cmp    $0x4,%al
  10289c:	74 32                	je     1028d0 <dma_start_transfer+0x40>
  10289e:	0f b6 d0             	movzbl %al,%edx
  1028a1:	6b d2 1c             	imul   $0x1c,%edx,%edx
  1028a4:	8d 8a e0 42 11 00    	lea    0x1142e0(%edx),%ecx
  1028aa:	80 ba e1 42 11 00 00 	cmpb   $0x0,0x1142e1(%edx)
  1028b1:	74 1d                	je     1028d0 <dma_start_transfer+0x40>
  1028b3:	3c 04                	cmp    $0x4,%al
  1028b5:	19 d2                	sbb    %edx,%edx
  1028b7:	83 e0 03             	and    $0x3,%eax
  1028ba:	80 e2 36             	and    $0x36,%dl
  1028bd:	66 81 c2 d4 00       	add    $0xd4,%dx
  1028c2:	ee                   	out    %al,(%dx)
  1028c3:	31 c0                	xor    %eax,%eax
  1028c5:	c7 41 04 01 00 00 00 	movl   $0x1,0x4(%ecx)
  1028cc:	5d                   	pop    %ebp
  1028cd:	c3                   	ret
  1028ce:	66 90                	xchg   %ax,%ax
  1028d0:	b8 ff ff ff ff       	mov    $0xffffffff,%eax
  1028d5:	5d                   	pop    %ebp
  1028d6:	c3                   	ret
  1028d7:	90                   	nop
  1028d8:	2e 8d b4 26 00 00 00 	lea    %cs:0x0(%esi,%eiz,1),%esi
  1028df:	00 

001028e0 <dma_wait_completion>:
  1028e0:	55                   	push   %ebp
  1028e1:	89 e5                	mov    %esp,%ebp
  1028e3:	57                   	push   %edi
  1028e4:	56                   	push   %esi
  1028e5:	53                   	push   %ebx
  1028e6:	83 ec 1c             	sub    $0x1c,%esp
  1028e9:	8b 5d 08             	mov    0x8(%ebp),%ebx
  1028ec:	8b 75 0c             	mov    0xc(%ebp),%esi
  1028ef:	80 fb 07             	cmp    $0x7,%bl
  1028f2:	0f 87 70 01 00 00    	ja     102a68 <dma_wait_completion+0x188>
  1028f8:	84 db                	test   %bl,%bl
  1028fa:	0f 85 80 00 00 00    	jne    102980 <dma_wait_completion+0xa0>
  102900:	0f b6 05 c0 42 11 00 	movzbl 0x1142c0,%eax
  102907:	84 c0                	test   %al,%al
  102909:	75 5e                	jne    102969 <dma_wait_completion+0x89>
  10290b:	85 f6                	test   %esi,%esi
  10290d:	0f 84 3d 01 00 00    	je     102a50 <dma_wait_completion+0x170>
  102913:	31 d2                	xor    %edx,%edx
  102915:	8d 76 00             	lea    0x0(%esi),%esi
  102918:	2e 8d b4 26 00 00 00 	lea    %cs:0x0(%esi,%eiz,1),%esi
  10291f:	00 
  102920:	c7 45 e0 00 00 00 00 	movl   $0x0,-0x20(%ebp)
  102927:	8b 45 e0             	mov    -0x20(%ebp),%eax
  10292a:	3d 0f 27 00 00       	cmp    $0x270f,%eax
  10292f:	77 22                	ja     102953 <dma_wait_completion+0x73>
  102931:	8d b4 26 00 00 00 00 	lea    0x0(%esi,%eiz,1),%esi
  102938:	2e 8d b4 26 00 00 00 	lea    %cs:0x0(%esi,%eiz,1),%esi
  10293f:	00 
  102940:	8b 45 e0             	mov    -0x20(%ebp),%eax
  102943:	83 c0 01             	add    $0x1,%eax
  102946:	89 45 e0             	mov    %eax,-0x20(%ebp)
  102949:	8b 45 e0             	mov    -0x20(%ebp),%eax
  10294c:	3d 0f 27 00 00       	cmp    $0x270f,%eax
  102951:	76 ed                	jbe    102940 <dma_wait_completion+0x60>
  102953:	83 c2 01             	add    $0x1,%edx
  102956:	39 f2                	cmp    %esi,%edx
  102958:	0f 83 31 01 00 00    	jae    102a8f <dma_wait_completion+0x1af>
  10295e:	0f b6 05 c0 42 11 00 	movzbl 0x1142c0,%eax
  102965:	84 c0                	test   %al,%al
  102967:	74 b7                	je     102920 <dma_wait_completion+0x40>
  102969:	c6 05 c0 42 11 00 00 	movb   $0x0,0x1142c0
  102970:	31 c0                	xor    %eax,%eax
  102972:	8d 65 f4             	lea    -0xc(%ebp),%esp
  102975:	5b                   	pop    %ebx
  102976:	5e                   	pop    %esi
  102977:	5f                   	pop    %edi
  102978:	5d                   	pop    %ebp
  102979:	c3                   	ret
  10297a:	8d b6 00 00 00 00    	lea    0x0(%esi),%esi
  102980:	80 fb 04             	cmp    $0x4,%bl
  102983:	89 d9                	mov    %ebx,%ecx
  102985:	b8 01 00 00 00       	mov    $0x1,%eax
  10298a:	19 d2                	sbb    %edx,%edx
  10298c:	83 e1 03             	and    $0x3,%ecx
  10298f:	80 e2 38             	and    $0x38,%dl
  102992:	d3 e0                	shl    %cl,%eax
  102994:	66 81 c2 d0 00       	add    $0xd0,%dx
  102999:	89 c1                	mov    %eax,%ecx
  10299b:	ec                   	in     (%dx),%al
  10299c:	84 c8                	test   %cl,%al
  10299e:	75 5f                	jne    1029ff <dma_wait_completion+0x11f>
  1029a0:	85 f6                	test   %esi,%esi
  1029a2:	74 7a                	je     102a1e <dma_wait_completion+0x13e>
  1029a4:	31 ff                	xor    %edi,%edi
  1029a6:	66 90                	xchg   %ax,%ax
  1029a8:	2e 8d b4 26 00 00 00 	lea    %cs:0x0(%esi,%eiz,1),%esi
  1029af:	00 
  1029b0:	c7 45 e4 00 00 00 00 	movl   $0x0,-0x1c(%ebp)
  1029b7:	8b 45 e4             	mov    -0x1c(%ebp),%eax
  1029ba:	3d 0f 27 00 00       	cmp    $0x270f,%eax
  1029bf:	77 32                	ja     1029f3 <dma_wait_completion+0x113>
  1029c1:	eb 1d                	jmp    1029e0 <dma_wait_completion+0x100>
  1029c3:	2e 8d 74 26 00       	lea    %cs:0x0(%esi,%eiz,1),%esi
  1029c8:	2e 8d b4 26 00 00 00 	lea    %cs:0x0(%esi,%eiz,1),%esi
  1029cf:	00 
  1029d0:	2e 8d b4 26 00 00 00 	lea    %cs:0x0(%esi,%eiz,1),%esi
  1029d7:	00 
  1029d8:	2e 8d b4 26 00 00 00 	lea    %cs:0x0(%esi,%eiz,1),%esi
  1029df:	00 
  1029e0:	8b 45 e4             	mov    -0x1c(%ebp),%eax
  1029e3:	83 c0 01             	add    $0x1,%eax
  1029e6:	89 45 e4             	mov    %eax,-0x1c(%ebp)
  1029e9:	8b 45 e4             	mov    -0x1c(%ebp),%eax
  1029ec:	3d 0f 27 00 00       	cmp    $0x270f,%eax
  1029f1:	76 ed                	jbe    1029e0 <dma_wait_completion+0x100>
  1029f3:	83 c7 01             	add    $0x1,%edi
  1029f6:	39 f7                	cmp    %esi,%edi
  1029f8:	73 78                	jae    102a72 <dma_wait_completion+0x192>
  1029fa:	ec                   	in     (%dx),%al
  1029fb:	84 c8                	test   %cl,%al
  1029fd:	74 b1                	je     1029b0 <dma_wait_completion+0xd0>
  1029ff:	0f b6 db             	movzbl %bl,%ebx
  102a02:	6b db 1c             	imul   $0x1c,%ebx,%ebx
  102a05:	c7 83 e4 42 11 00 02 	movl   $0x2,0x1142e4(%ebx)
  102a0c:	00 00 00 
  102a0f:	e9 5c ff ff ff       	jmp    102970 <dma_wait_completion+0x90>
  102a14:	8d 74 26 00          	lea    0x0(%esi,%eiz,1),%esi
  102a18:	f4                   	hlt
  102a19:	ec                   	in     (%dx),%al
  102a1a:	84 c8                	test   %cl,%al
  102a1c:	75 e1                	jne    1029ff <dma_wait_completion+0x11f>
  102a1e:	f4                   	hlt
  102a1f:	ec                   	in     (%dx),%al
  102a20:	84 c8                	test   %cl,%al
  102a22:	74 f4                	je     102a18 <dma_wait_completion+0x138>
  102a24:	0f b6 db             	movzbl %bl,%ebx
  102a27:	6b db 1c             	imul   $0x1c,%ebx,%ebx
  102a2a:	c7 83 e4 42 11 00 02 	movl   $0x2,0x1142e4(%ebx)
  102a31:	00 00 00 
  102a34:	e9 37 ff ff ff       	jmp    102970 <dma_wait_completion+0x90>
  102a39:	8d b4 26 00 00 00 00 	lea    0x0(%esi,%eiz,1),%esi
  102a40:	f4                   	hlt
  102a41:	0f b6 05 c0 42 11 00 	movzbl 0x1142c0,%eax
  102a48:	84 c0                	test   %al,%al
  102a4a:	0f 85 19 ff ff ff    	jne    102969 <dma_wait_completion+0x89>
  102a50:	f4                   	hlt
  102a51:	0f b6 05 c0 42 11 00 	movzbl 0x1142c0,%eax
  102a58:	84 c0                	test   %al,%al
  102a5a:	74 e4                	je     102a40 <dma_wait_completion+0x160>
  102a5c:	c6 05 c0 42 11 00 00 	movb   $0x0,0x1142c0
  102a63:	e9 08 ff ff ff       	jmp    102970 <dma_wait_completion+0x90>
  102a68:	b8 ff ff ff ff       	mov    $0xffffffff,%eax
  102a6d:	e9 00 ff ff ff       	jmp    102972 <dma_wait_completion+0x92>
  102a72:	0f b6 c3             	movzbl %bl,%eax
  102a75:	6b c0 1c             	imul   $0x1c,%eax,%eax
  102a78:	c7 80 e4 42 11 00 03 	movl   $0x3,0x1142e4(%eax)
  102a7f:	00 00 00 
  102a82:	8d 65 f4             	lea    -0xc(%ebp),%esp
  102a85:	b8 fc ff ff ff       	mov    $0xfffffffc,%eax
  102a8a:	5b                   	pop    %ebx
  102a8b:	5e                   	pop    %esi
  102a8c:	5f                   	pop    %edi
  102a8d:	5d                   	pop    %ebp
  102a8e:	c3                   	ret
  102a8f:	83 ec 0c             	sub    $0xc,%esp
  102a92:	68 18 cd 10 00       	push   $0x10cd18
  102a97:	e8 74 e1 ff ff       	call   100c10 <terminal_writestring>
  102a9c:	83 c4 10             	add    $0x10,%esp
  102a9f:	eb e1                	jmp    102a82 <dma_wait_completion+0x1a2>
  102aa1:	8d b4 26 00 00 00 00 	lea    0x0(%esi,%eiz,1),%esi
  102aa8:	2e 8d b4 26 00 00 00 	lea    %cs:0x0(%esi,%eiz,1),%esi
  102aaf:	00 

00102ab0 <dma_get_channel_state>:
  102ab0:	55                   	push   %ebp
  102ab1:	ba 03 00 00 00       	mov    $0x3,%edx
  102ab6:	89 e5                	mov    %esp,%ebp
  102ab8:	8b 45 08             	mov    0x8(%ebp),%eax
  102abb:	3c 07                	cmp    $0x7,%al
  102abd:	77 0c                	ja     102acb <dma_get_channel_state+0x1b>
  102abf:	0f b6 c0             	movzbl %al,%eax
  102ac2:	6b c0 1c             	imul   $0x1c,%eax,%eax
  102ac5:	8b 90 e4 42 11 00    	mov    0x1142e4(%eax),%edx
  102acb:	89 d0                	mov    %edx,%eax
  102acd:	5d                   	pop    %ebp
  102ace:	c3                   	ret
  102acf:	90                   	nop

00102ad0 <dma_stop_transfer>:
  102ad0:	55                   	push   %ebp
  102ad1:	89 e5                	mov    %esp,%ebp
  102ad3:	8b 4d 08             	mov    0x8(%ebp),%ecx
  102ad6:	80 f9 07             	cmp    $0x7,%cl
  102ad9:	77 28                	ja     102b03 <dma_stop_transfer+0x33>
  102adb:	80 f9 04             	cmp    $0x4,%cl
  102ade:	74 23                	je     102b03 <dma_stop_transfer+0x33>
  102ae0:	19 d2                	sbb    %edx,%edx
  102ae2:	89 c8                	mov    %ecx,%eax
  102ae4:	80 e2 36             	and    $0x36,%dl
  102ae7:	83 e0 03             	and    $0x3,%eax
  102aea:	66 81 c2 d4 00       	add    $0xd4,%dx
  102aef:	83 c8 04             	or     $0x4,%eax
  102af2:	ee                   	out    %al,(%dx)
  102af3:	0f b6 c9             	movzbl %cl,%ecx
  102af6:	6b c9 1c             	imul   $0x1c,%ecx,%ecx
  102af9:	c7 81 e4 42 11 00 00 	movl   $0x0,0x1142e4(%ecx)
  102b00:	00 00 00 
  102b03:	5d                   	pop    %ebp
  102b04:	c3                   	ret
  102b05:	8d 76 00             	lea    0x0(%esi),%esi
  102b08:	2e 8d b4 26 00 00 00 	lea    %cs:0x0(%esi,%eiz,1),%esi
  102b0f:	00 

00102b10 <dma_memcpy_phys>:
  102b10:	55                   	push   %ebp
  102b11:	89 e5                	mov    %esp,%ebp
  102b13:	57                   	push   %edi
  102b14:	56                   	push   %esi
  102b15:	53                   	push   %ebx
  102b16:	83 ec 2c             	sub    $0x2c,%esp
  102b19:	8b 5d 10             	mov    0x10(%ebp),%ebx
  102b1c:	8b 55 08             	mov    0x8(%ebp),%edx
  102b1f:	8b 75 0c             	mov    0xc(%ebp),%esi
  102b22:	8d 43 ff             	lea    -0x1(%ebx),%eax
  102b25:	3d ff 7f 00 00       	cmp    $0x7fff,%eax
  102b2a:	0f 87 b0 02 00 00    	ja     102de0 <dma_memcpy_phys+0x2d0>
  102b30:	89 f0                	mov    %esi,%eax
  102b32:	09 d0                	or     %edx,%eax
  102b34:	3d ff ff ff 00       	cmp    $0xffffff,%eax
  102b39:	0f 87 3a 02 00 00    	ja     102d79 <dma_memcpy_phys+0x269>
  102b3f:	8d 04 33             	lea    (%ebx,%esi,1),%eax
  102b42:	3d 00 00 00 01       	cmp    $0x1000000,%eax
  102b47:	0f 87 15 02 00 00    	ja     102d62 <dma_memcpy_phys+0x252>
  102b4d:	8d 04 13             	lea    (%ebx,%edx,1),%eax
  102b50:	3d 00 00 00 01       	cmp    $0x1000000,%eax
  102b55:	0f 87 07 02 00 00    	ja     102d62 <dma_memcpy_phys+0x252>
  102b5b:	80 3d e1 42 11 00 00 	cmpb   $0x0,0x1142e1
  102b62:	0f 85 e3 01 00 00    	jne    102d4b <dma_memcpy_phys+0x23b>
  102b68:	80 3d fd 42 11 00 00 	cmpb   $0x0,0x1142fd
  102b6f:	0f 85 d6 01 00 00    	jne    102d4b <dma_memcpy_phys+0x23b>
  102b75:	83 ec 0c             	sub    $0xc,%esp
  102b78:	89 55 08             	mov    %edx,0x8(%ebp)
  102b7b:	8d 7d c8             	lea    -0x38(%ebp),%edi
  102b7e:	68 65 bd 10 00       	push   $0x10bd65
  102b83:	e8 88 e0 ff ff       	call   100c10 <terminal_writestring>
  102b88:	83 c4 0c             	add    $0xc,%esp
  102b8b:	6a 10                	push   $0x10
  102b8d:	57                   	push   %edi
  102b8e:	56                   	push   %esi
  102b8f:	e8 9c dd ff ff       	call   100930 <itoa>
  102b94:	89 3c 24             	mov    %edi,(%esp)
  102b97:	e8 74 e0 ff ff       	call   100c10 <terminal_writestring>
  102b9c:	c7 04 24 7c bd 10 00 	movl   $0x10bd7c,(%esp)
  102ba3:	e8 68 e0 ff ff       	call   100c10 <terminal_writestring>
  102ba8:	8b 55 08             	mov    0x8(%ebp),%edx
  102bab:	83 c4 0c             	add    $0xc,%esp
  102bae:	6a 10                	push   $0x10
  102bb0:	57                   	push   %edi
  102bb1:	52                   	push   %edx
  102bb2:	e8 79 dd ff ff       	call   100930 <itoa>
  102bb7:	89 3c 24             	mov    %edi,(%esp)
  102bba:	e8 51 e0 ff ff       	call   100c10 <terminal_writestring>
  102bbf:	c7 04 24 e8 c0 10 00 	movl   $0x10c0e8,(%esp)
  102bc6:	e8 45 e0 ff ff       	call   100c10 <terminal_writestring>
  102bcb:	83 c4 0c             	add    $0xc,%esp
  102bce:	6a 0a                	push   $0xa
  102bd0:	57                   	push   %edi
  102bd1:	53                   	push   %ebx
  102bd2:	e8 59 dd ff ff       	call   100930 <itoa>
  102bd7:	89 3c 24             	mov    %edi,(%esp)
  102bda:	e8 31 e0 ff ff       	call   100c10 <terminal_writestring>
  102bdf:	c7 04 24 83 bd 10 00 	movl   $0x10bd83,(%esp)
  102be6:	e8 25 e0 ff ff       	call   100c10 <terminal_writestring>
  102beb:	c6 05 e1 42 11 00 01 	movb   $0x1,0x1142e1
  102bf2:	b8 04 00 00 00       	mov    $0x4,%eax
  102bf7:	c6 05 fd 42 11 00 01 	movb   $0x1,0x1142fd
  102bfe:	e6 0a                	out    %al,$0xa
  102c00:	b8 05 00 00 00       	mov    $0x5,%eax
  102c05:	e6 0a                	out    %al,$0xa
  102c07:	b8 ff ff ff ff       	mov    $0xffffffff,%eax
  102c0c:	e6 0c                	out    %al,$0xc
  102c0e:	e6 0c                	out    %al,$0xc
  102c10:	b8 01 00 00 00       	mov    $0x1,%eax
  102c15:	e6 08                	out    %al,$0x8
  102c17:	b8 ff ff ff ff       	mov    $0xffffffff,%eax
  102c1c:	e6 0c                	out    %al,$0xc
  102c1e:	89 f0                	mov    %esi,%eax
  102c20:	e6 00                	out    %al,$0x0
  102c22:	89 f0                	mov    %esi,%eax
  102c24:	66 c1 e8 08          	shr    $0x8,%ax
  102c28:	e6 00                	out    %al,$0x0
  102c2a:	89 f0                	mov    %esi,%eax
  102c2c:	c1 e8 10             	shr    $0x10,%eax
  102c2f:	e6 87                	out    %al,$0x87
  102c31:	b8 ff ff ff ff       	mov    $0xffffffff,%eax
  102c36:	e6 0c                	out    %al,$0xc
  102c38:	0f b6 45 08          	movzbl 0x8(%ebp),%eax
  102c3c:	e6 02                	out    %al,$0x2
  102c3e:	0f b7 45 08          	movzwl 0x8(%ebp),%eax
  102c42:	66 c1 e8 08          	shr    $0x8,%ax
  102c46:	e6 02                	out    %al,$0x2
  102c48:	8b 45 08             	mov    0x8(%ebp),%eax
  102c4b:	c1 e8 10             	shr    $0x10,%eax
  102c4e:	e6 83                	out    %al,$0x83
  102c50:	b8 ff ff ff ff       	mov    $0xffffffff,%eax
  102c55:	8d 53 ff             	lea    -0x1(%ebx),%edx
  102c58:	e6 0c                	out    %al,$0xc
  102c5a:	89 d6                	mov    %edx,%esi
  102c5c:	89 d0                	mov    %edx,%eax
  102c5e:	e6 01                	out    %al,$0x1
  102c60:	0f b6 d6             	movzbl %dh,%edx
  102c63:	89 d0                	mov    %edx,%eax
  102c65:	e6 01                	out    %al,$0x1
  102c67:	b8 ff ff ff ff       	mov    $0xffffffff,%eax
  102c6c:	e6 0c                	out    %al,$0xc
  102c6e:	89 f0                	mov    %esi,%eax
  102c70:	e6 03                	out    %al,$0x3
  102c72:	89 d0                	mov    %edx,%eax
  102c74:	e6 03                	out    %al,$0x3
  102c76:	b8 88 ff ff ff       	mov    $0xffffff88,%eax
  102c7b:	e6 0b                	out    %al,$0xb
  102c7d:	b8 85 ff ff ff       	mov    $0xffffff85,%eax
  102c82:	e6 0b                	out    %al,$0xb
  102c84:	c6 05 c0 42 11 00 00 	movb   $0x0,0x1142c0
  102c8b:	b8 01 00 00 00       	mov    $0x1,%eax
  102c90:	e6 0a                	out    %al,$0xa
  102c92:	31 c0                	xor    %eax,%eax
  102c94:	e6 0a                	out    %al,$0xa
  102c96:	c7 04 24 f8 cd 10 00 	movl   $0x10cdf8,(%esp)
  102c9d:	e8 6e df ff ff       	call   100c10 <terminal_writestring>
  102ca2:	83 c4 10             	add    $0x10,%esp
  102ca5:	b9 40 4b 4c 00       	mov    $0x4c4b40,%ecx
  102caa:	eb 09                	jmp    102cb5 <dma_memcpy_phys+0x1a5>
  102cac:	8d 74 26 00          	lea    0x0(%esi,%eiz,1),%esi
  102cb0:	83 e9 01             	sub    $0x1,%ecx
  102cb3:	74 57                	je     102d0c <dma_memcpy_phys+0x1fc>
  102cb5:	e4 08                	in     $0x8,%al
  102cb7:	83 e0 01             	and    $0x1,%eax
  102cba:	89 c6                	mov    %eax,%esi
  102cbc:	74 f2                	je     102cb0 <dma_memcpy_phys+0x1a0>
  102cbe:	31 c0                	xor    %eax,%eax
  102cc0:	e6 08                	out    %al,$0x8
  102cc2:	b8 04 00 00 00       	mov    $0x4,%eax
  102cc7:	e6 0a                	out    %al,$0xa
  102cc9:	b8 05 00 00 00       	mov    $0x5,%eax
  102cce:	e6 0a                	out    %al,$0xa
  102cd0:	83 ec 0c             	sub    $0xc,%esp
  102cd3:	c6 05 e1 42 11 00 00 	movb   $0x0,0x1142e1
  102cda:	c6 05 fd 42 11 00 00 	movb   $0x0,0x1142fd
  102ce1:	c7 05 e4 42 11 00 02 	movl   $0x2,0x1142e4
  102ce8:	00 00 00 
  102ceb:	c7 05 00 43 11 00 02 	movl   $0x2,0x114300
  102cf2:	00 00 00 
  102cf5:	68 8b bd 10 00       	push   $0x10bd8b
  102cfa:	e8 11 df ff ff       	call   100c10 <terminal_writestring>
  102cff:	83 c4 10             	add    $0x10,%esp
  102d02:	8d 65 f4             	lea    -0xc(%ebp),%esp
  102d05:	89 d8                	mov    %ebx,%eax
  102d07:	5b                   	pop    %ebx
  102d08:	5e                   	pop    %esi
  102d09:	5f                   	pop    %edi
  102d0a:	5d                   	pop    %ebp
  102d0b:	c3                   	ret
  102d0c:	83 ec 0c             	sub    $0xc,%esp
  102d0f:	68 24 ce 10 00       	push   $0x10ce24
  102d14:	e8 f7 de ff ff       	call   100c10 <terminal_writestring>
  102d19:	b8 04 00 00 00       	mov    $0x4,%eax
  102d1e:	e6 0a                	out    %al,$0xa
  102d20:	b8 05 00 00 00       	mov    $0x5,%eax
  102d25:	e6 0a                	out    %al,$0xa
  102d27:	89 f0                	mov    %esi,%eax
  102d29:	e6 08                	out    %al,$0x8
  102d2b:	c6 05 e1 42 11 00 00 	movb   $0x0,0x1142e1
  102d32:	bb fc ff ff ff       	mov    $0xfffffffc,%ebx
  102d37:	83 c4 10             	add    $0x10,%esp
  102d3a:	c6 05 fd 42 11 00 00 	movb   $0x0,0x1142fd
  102d41:	8d 65 f4             	lea    -0xc(%ebp),%esp
  102d44:	89 d8                	mov    %ebx,%eax
  102d46:	5b                   	pop    %ebx
  102d47:	5e                   	pop    %esi
  102d48:	5f                   	pop    %edi
  102d49:	5d                   	pop    %ebp
  102d4a:	c3                   	ret
  102d4b:	83 ec 0c             	sub    $0xc,%esp
  102d4e:	bb fd ff ff ff       	mov    $0xfffffffd,%ebx
  102d53:	68 d0 cd 10 00       	push   $0x10cdd0
  102d58:	e8 b3 de ff ff       	call   100c10 <terminal_writestring>
  102d5d:	83 c4 10             	add    $0x10,%esp
  102d60:	eb a0                	jmp    102d02 <dma_memcpy_phys+0x1f2>
  102d62:	83 ec 0c             	sub    $0xc,%esp
  102d65:	68 9c cd 10 00       	push   $0x10cd9c
  102d6a:	e8 a1 de ff ff       	call   100c10 <terminal_writestring>
  102d6f:	83 c4 10             	add    $0x10,%esp
  102d72:	bb fe ff ff ff       	mov    $0xfffffffe,%ebx
  102d77:	eb 89                	jmp    102d02 <dma_memcpy_phys+0x1f2>
  102d79:	83 ec 0c             	sub    $0xc,%esp
  102d7c:	89 55 08             	mov    %edx,0x8(%ebp)
  102d7f:	8d 5d c8             	lea    -0x38(%ebp),%ebx
  102d82:	68 64 cd 10 00       	push   $0x10cd64
  102d87:	e8 84 de ff ff       	call   100c10 <terminal_writestring>
  102d8c:	c7 04 24 54 bd 10 00 	movl   $0x10bd54,(%esp)
  102d93:	e8 78 de ff ff       	call   100c10 <terminal_writestring>
  102d98:	83 c4 0c             	add    $0xc,%esp
  102d9b:	6a 10                	push   $0x10
  102d9d:	53                   	push   %ebx
  102d9e:	56                   	push   %esi
  102d9f:	e8 8c db ff ff       	call   100930 <itoa>
  102da4:	89 1c 24             	mov    %ebx,(%esp)
  102da7:	e8 64 de ff ff       	call   100c10 <terminal_writestring>
  102dac:	c7 04 24 5d bd 10 00 	movl   $0x10bd5d,(%esp)
  102db3:	e8 58 de ff ff       	call   100c10 <terminal_writestring>
  102db8:	8b 55 08             	mov    0x8(%ebp),%edx
  102dbb:	83 c4 0c             	add    $0xc,%esp
  102dbe:	6a 10                	push   $0x10
  102dc0:	53                   	push   %ebx
  102dc1:	52                   	push   %edx
  102dc2:	e8 69 db ff ff       	call   100930 <itoa>
  102dc7:	89 1c 24             	mov    %ebx,(%esp)
  102dca:	e8 41 de ff ff       	call   100c10 <terminal_writestring>
  102dcf:	c7 04 24 a9 bf 10 00 	movl   $0x10bfa9,(%esp)
  102dd6:	e8 35 de ff ff       	call   100c10 <terminal_writestring>
  102ddb:	83 c4 10             	add    $0x10,%esp
  102dde:	eb 92                	jmp    102d72 <dma_memcpy_phys+0x262>
  102de0:	83 ec 0c             	sub    $0xc,%esp
  102de3:	bb ff ff ff ff       	mov    $0xffffffff,%ebx
  102de8:	68 38 cd 10 00       	push   $0x10cd38
  102ded:	e8 1e de ff ff       	call   100c10 <terminal_writestring>
  102df2:	83 c4 10             	add    $0x10,%esp
  102df5:	e9 08 ff ff ff       	jmp    102d02 <dma_memcpy_phys+0x1f2>
  102dfa:	8d b6 00 00 00 00    	lea    0x0(%esi),%esi

00102e00 <dma_memcpy>:
  102e00:	e9 0b fd ff ff       	jmp    102b10 <dma_memcpy_phys>
  102e05:	8d 76 00             	lea    0x0(%esi),%esi
  102e08:	2e 8d b4 26 00 00 00 	lea    %cs:0x0(%esi,%eiz,1),%esi
  102e0f:	00 

00102e10 <dma_alloc_buffer>:
  102e10:	55                   	push   %ebp
  102e11:	89 e5                	mov    %esp,%ebp
  102e13:	53                   	push   %ebx
  102e14:	83 ec 14             	sub    $0x14,%esp
  102e17:	8b 45 08             	mov    0x8(%ebp),%eax
  102e1a:	83 c0 0f             	add    $0xf,%eax
  102e1d:	83 e0 f0             	and    $0xfffffff0,%eax
  102e20:	0f 84 8a 00 00 00    	je     102eb0 <dma_alloc_buffer+0xa0>
  102e26:	89 c3                	mov    %eax,%ebx
  102e28:	8d 80 ff 0f 00 00    	lea    0xfff(%eax),%eax
  102e2e:	83 ec 0c             	sub    $0xc,%esp
  102e31:	c1 e8 0c             	shr    $0xc,%eax
  102e34:	50                   	push   %eax
  102e35:	e8 d6 0a 00 00       	call   103910 <alloc_pages>
  102e3a:	83 c4 10             	add    $0x10,%esp
  102e3d:	89 c2                	mov    %eax,%edx
  102e3f:	85 c0                	test   %eax,%eax
  102e41:	74 5d                	je     102ea0 <dma_alloc_buffer+0x90>
  102e43:	3d ff ff ff 00       	cmp    $0xffffff,%eax
  102e48:	77 36                	ja     102e80 <dma_alloc_buffer+0x70>
  102e4a:	f6 45 0c 01          	testb  $0x1,0xc(%ebp)
  102e4e:	75 10                	jne    102e60 <dma_alloc_buffer+0x50>
  102e50:	8b 5d fc             	mov    -0x4(%ebp),%ebx
  102e53:	89 d0                	mov    %edx,%eax
  102e55:	c9                   	leave
  102e56:	c3                   	ret
  102e57:	90                   	nop
  102e58:	2e 8d b4 26 00 00 00 	lea    %cs:0x0(%esi,%eiz,1),%esi
  102e5f:	00 
  102e60:	83 ec 04             	sub    $0x4,%esp
  102e63:	53                   	push   %ebx
  102e64:	6a 00                	push   $0x0
  102e66:	52                   	push   %edx
  102e67:	89 55 f4             	mov    %edx,-0xc(%ebp)
  102e6a:	e8 31 d6 ff ff       	call   1004a0 <memset>
  102e6f:	8b 55 f4             	mov    -0xc(%ebp),%edx
  102e72:	8b 5d fc             	mov    -0x4(%ebp),%ebx
  102e75:	83 c4 10             	add    $0x10,%esp
  102e78:	c9                   	leave
  102e79:	89 d0                	mov    %edx,%eax
  102e7b:	c3                   	ret
  102e7c:	8d 74 26 00          	lea    0x0(%esi,%eiz,1),%esi
  102e80:	83 ec 0c             	sub    $0xc,%esp
  102e83:	89 45 f4             	mov    %eax,-0xc(%ebp)
  102e86:	68 68 ce 10 00       	push   $0x10ce68
  102e8b:	e8 80 dd ff ff       	call   100c10 <terminal_writestring>
  102e90:	8b 55 f4             	mov    -0xc(%ebp),%edx
  102e93:	83 c4 10             	add    $0x10,%esp
  102e96:	f6 45 0c 01          	testb  $0x1,0xc(%ebp)
  102e9a:	74 b4                	je     102e50 <dma_alloc_buffer+0x40>
  102e9c:	eb c2                	jmp    102e60 <dma_alloc_buffer+0x50>
  102e9e:	66 90                	xchg   %ax,%ax
  102ea0:	83 ec 0c             	sub    $0xc,%esp
  102ea3:	68 44 ce 10 00       	push   $0x10ce44
  102ea8:	e8 63 dd ff ff       	call   100c10 <terminal_writestring>
  102ead:	83 c4 10             	add    $0x10,%esp
  102eb0:	31 d2                	xor    %edx,%edx
  102eb2:	8b 5d fc             	mov    -0x4(%ebp),%ebx
  102eb5:	c9                   	leave
  102eb6:	89 d0                	mov    %edx,%eax
  102eb8:	c3                   	ret
  102eb9:	8d b4 26 00 00 00 00 	lea    0x0(%esi,%eiz,1),%esi

00102ec0 <dma_free_buffer>:
  102ec0:	55                   	push   %ebp
  102ec1:	89 e5                	mov    %esp,%ebp
  102ec3:	8b 55 08             	mov    0x8(%ebp),%edx
  102ec6:	8b 45 0c             	mov    0xc(%ebp),%eax
  102ec9:	85 d2                	test   %edx,%edx
  102ecb:	74 1b                	je     102ee8 <dma_free_buffer+0x28>
  102ecd:	05 ff 0f 00 00       	add    $0xfff,%eax
  102ed2:	89 55 08             	mov    %edx,0x8(%ebp)
  102ed5:	c1 e8 0c             	shr    $0xc,%eax
  102ed8:	89 45 0c             	mov    %eax,0xc(%ebp)
  102edb:	5d                   	pop    %ebp
  102edc:	e9 bf 0a 00 00       	jmp    1039a0 <free_pages>
  102ee1:	8d b4 26 00 00 00 00 	lea    0x0(%esi,%eiz,1),%esi
  102ee8:	5d                   	pop    %ebp
  102ee9:	c3                   	ret
  102eea:	8d b6 00 00 00 00    	lea    0x0(%esi),%esi

00102ef0 <dma_dump_status>:
  102ef0:	55                   	push   %ebp
  102ef1:	89 e5                	mov    %esp,%ebp
  102ef3:	57                   	push   %edi
  102ef4:	56                   	push   %esi
  102ef5:	53                   	push   %ebx
  102ef6:	83 ec 28             	sub    $0x28,%esp
  102ef9:	68 94 ce 10 00       	push   $0x10ce94
  102efe:	e8 0d dd ff ff       	call   100c10 <terminal_writestring>
  102f03:	e4 08                	in     $0x8,%al
  102f05:	0f b6 d8             	movzbl %al,%ebx
  102f08:	e4 d0                	in     $0xd0,%al
  102f0a:	c7 04 24 a7 bd 10 00 	movl   $0x10bda7,(%esp)
  102f11:	89 c6                	mov    %eax,%esi
  102f13:	8d 7d d8             	lea    -0x28(%ebp),%edi
  102f16:	e8 f5 dc ff ff       	call   100c10 <terminal_writestring>
  102f1b:	83 c4 0c             	add    $0xc,%esp
  102f1e:	6a 10                	push   $0x10
  102f20:	57                   	push   %edi
  102f21:	53                   	push   %ebx
  102f22:	e8 09 da ff ff       	call   100930 <itoa>
  102f27:	89 3c 24             	mov    %edi,(%esp)
  102f2a:	e8 e1 dc ff ff       	call   100c10 <terminal_writestring>
  102f2f:	c7 04 24 a9 bf 10 00 	movl   $0x10bfa9,(%esp)
  102f36:	e8 d5 dc ff ff       	call   100c10 <terminal_writestring>
  102f3b:	c7 04 24 b9 bd 10 00 	movl   $0x10bdb9,(%esp)
  102f42:	e8 c9 dc ff ff       	call   100c10 <terminal_writestring>
  102f47:	89 f0                	mov    %esi,%eax
  102f49:	83 c4 0c             	add    $0xc,%esp
  102f4c:	0f b6 f0             	movzbl %al,%esi
  102f4f:	6a 10                	push   $0x10
  102f51:	57                   	push   %edi
  102f52:	56                   	push   %esi
  102f53:	e8 d8 d9 ff ff       	call   100930 <itoa>
  102f58:	89 3c 24             	mov    %edi,(%esp)
  102f5b:	31 ff                	xor    %edi,%edi
  102f5d:	e8 ae dc ff ff       	call   100c10 <terminal_writestring>
  102f62:	c7 04 24 a9 bf 10 00 	movl   $0x10bfa9,(%esp)
  102f69:	e8 a2 dc ff ff       	call   100c10 <terminal_writestring>
  102f6e:	c7 04 24 cb bd 10 00 	movl   $0x10bdcb,(%esp)
  102f75:	e8 96 dc ff ff       	call   100c10 <terminal_writestring>
  102f7a:	83 c4 10             	add    $0x10,%esp
  102f7d:	89 f8                	mov    %edi,%eax
  102f7f:	ba a5 bd 10 00       	mov    $0x10bda5,%edx
  102f84:	0f a3 c3             	bt     %eax,%ebx
  102f87:	b8 d9 b9 10 00       	mov    $0x10b9d9,%eax
  102f8c:	0f 42 d0             	cmovb  %eax,%edx
  102f8f:	83 ec 0c             	sub    $0xc,%esp
  102f92:	83 c7 01             	add    $0x1,%edi
  102f95:	52                   	push   %edx
  102f96:	e8 75 dc ff ff       	call   100c10 <terminal_writestring>
  102f9b:	83 c4 10             	add    $0x10,%esp
  102f9e:	83 ff 04             	cmp    $0x4,%edi
  102fa1:	75 da                	jne    102f7d <dma_dump_status+0x8d>
  102fa3:	83 ec 0c             	sub    $0xc,%esp
  102fa6:	68 d9 bd 10 00       	push   $0x10bdd9
  102fab:	e8 60 dc ff ff       	call   100c10 <terminal_writestring>
  102fb0:	83 c4 10             	add    $0x10,%esp
  102fb3:	89 f8                	mov    %edi,%eax
  102fb5:	ba a5 bd 10 00       	mov    $0x10bda5,%edx
  102fba:	0f a3 c3             	bt     %eax,%ebx
  102fbd:	b8 d9 b9 10 00       	mov    $0x10b9d9,%eax
  102fc2:	0f 42 d0             	cmovb  %eax,%edx
  102fc5:	83 ec 0c             	sub    $0xc,%esp
  102fc8:	83 c7 01             	add    $0x1,%edi
  102fcb:	52                   	push   %edx
  102fcc:	e8 3f dc ff ff       	call   100c10 <terminal_writestring>
  102fd1:	83 c4 10             	add    $0x10,%esp
  102fd4:	83 ff 08             	cmp    $0x8,%edi
  102fd7:	75 da                	jne    102fb3 <dma_dump_status+0xc3>
  102fd9:	83 ec 0c             	sub    $0xc,%esp
  102fdc:	31 db                	xor    %ebx,%ebx
  102fde:	bf a5 bd 10 00       	mov    $0x10bda5,%edi
  102fe3:	68 a9 bf 10 00       	push   $0x10bfa9
  102fe8:	e8 23 dc ff ff       	call   100c10 <terminal_writestring>
  102fed:	c7 04 24 e5 bd 10 00 	movl   $0x10bde5,(%esp)
  102ff4:	e8 17 dc ff ff       	call   100c10 <terminal_writestring>
  102ff9:	83 c4 10             	add    $0x10,%esp
  102ffc:	0f a3 de             	bt     %ebx,%esi
  102fff:	b8 d9 b9 10 00       	mov    $0x10b9d9,%eax
  103004:	0f 43 c7             	cmovae %edi,%eax
  103007:	83 ec 0c             	sub    $0xc,%esp
  10300a:	83 c3 01             	add    $0x1,%ebx
  10300d:	50                   	push   %eax
  10300e:	e8 fd db ff ff       	call   100c10 <terminal_writestring>
  103013:	83 c4 10             	add    $0x10,%esp
  103016:	83 fb 04             	cmp    $0x4,%ebx
  103019:	75 e1                	jne    102ffc <dma_dump_status+0x10c>
  10301b:	83 ec 0c             	sub    $0xc,%esp
  10301e:	bf a5 bd 10 00       	mov    $0x10bda5,%edi
  103023:	68 d9 bd 10 00       	push   $0x10bdd9
  103028:	e8 e3 db ff ff       	call   100c10 <terminal_writestring>
  10302d:	83 c4 10             	add    $0x10,%esp
  103030:	0f a3 de             	bt     %ebx,%esi
  103033:	b8 d9 b9 10 00       	mov    $0x10b9d9,%eax
  103038:	0f 43 c7             	cmovae %edi,%eax
  10303b:	83 ec 0c             	sub    $0xc,%esp
  10303e:	83 c3 01             	add    $0x1,%ebx
  103041:	50                   	push   %eax
  103042:	e8 c9 db ff ff       	call   100c10 <terminal_writestring>
  103047:	83 c4 10             	add    $0x10,%esp
  10304a:	83 fb 08             	cmp    $0x8,%ebx
  10304d:	75 e1                	jne    103030 <dma_dump_status+0x140>
  10304f:	83 ec 0c             	sub    $0xc,%esp
  103052:	68 a9 bf 10 00       	push   $0x10bfa9
  103057:	e8 b4 db ff ff       	call   100c10 <terminal_writestring>
  10305c:	c7 04 24 f3 bd 10 00 	movl   $0x10bdf3,(%esp)
  103063:	e8 a8 db ff ff       	call   100c10 <terminal_writestring>
  103068:	83 c4 10             	add    $0x10,%esp
  10306b:	8d 65 f4             	lea    -0xc(%ebp),%esp
  10306e:	5b                   	pop    %ebx
  10306f:	5e                   	pop    %esi
  103070:	5f                   	pop    %edi
  103071:	5d                   	pop    %ebp
  103072:	c3                   	ret
  103073:	2e 8d 74 26 00       	lea    %cs:0x0(%esi,%eiz,1),%esi
  103078:	2e 8d b4 26 00 00 00 	lea    %cs:0x0(%esi,%eiz,1),%esi
  10307f:	00 

00103080 <dma_dump_channels>:
  103080:	55                   	push   %ebp
  103081:	89 e5                	mov    %esp,%ebp
  103083:	57                   	push   %edi
  103084:	56                   	push   %esi
  103085:	8d 7d d8             	lea    -0x28(%ebp),%edi
  103088:	be e1 42 11 00       	mov    $0x1142e1,%esi
  10308d:	53                   	push   %ebx
  10308e:	31 db                	xor    %ebx,%ebx
  103090:	83 ec 28             	sub    $0x28,%esp
  103093:	68 1b be 10 00       	push   $0x10be1b
  103098:	e8 73 db ff ff       	call   100c10 <terminal_writestring>
  10309d:	c7 04 24 32 be 10 00 	movl   $0x10be32,(%esp)
  1030a4:	e8 67 db ff ff       	call   100c10 <terminal_writestring>
  1030a9:	c7 04 24 4c be 10 00 	movl   $0x10be4c,(%esp)
  1030b0:	e8 5b db ff ff       	call   100c10 <terminal_writestring>
  1030b5:	83 c4 10             	add    $0x10,%esp
  1030b8:	eb 3d                	jmp    1030f7 <dma_dump_channels+0x77>
  1030ba:	8d b6 00 00 00 00    	lea    0x0(%esi),%esi
  1030c0:	85 c0                	test   %eax,%eax
  1030c2:	0f 84 a8 00 00 00    	je     103170 <dma_dump_channels+0xf0>
  1030c8:	83 ec 0c             	sub    $0xc,%esp
  1030cb:	68 73 be 10 00       	push   $0x10be73
  1030d0:	e8 3b db ff ff       	call   100c10 <terminal_writestring>
  1030d5:	83 c4 10             	add    $0x10,%esp
  1030d8:	83 ec 0c             	sub    $0xc,%esp
  1030db:	83 c3 01             	add    $0x1,%ebx
  1030de:	83 c6 1c             	add    $0x1c,%esi
  1030e1:	68 a9 bf 10 00       	push   $0x10bfa9
  1030e6:	e8 25 db ff ff       	call   100c10 <terminal_writestring>
  1030eb:	83 c4 10             	add    $0x10,%esp
  1030ee:	83 fb 08             	cmp    $0x8,%ebx
  1030f1:	0f 84 91 00 00 00    	je     103188 <dma_dump_channels+0x108>
  1030f7:	83 ec 04             	sub    $0x4,%esp
  1030fa:	6a 0a                	push   $0xa
  1030fc:	57                   	push   %edi
  1030fd:	53                   	push   %ebx
  1030fe:	e8 2d d8 ff ff       	call   100930 <itoa>
  103103:	89 3c 24             	mov    %edi,(%esp)
  103106:	e8 05 db ff ff       	call   100c10 <terminal_writestring>
  10310b:	c7 04 24 a4 b9 10 00 	movl   $0x10b9a4,(%esp)
  103112:	e8 f9 da ff ff       	call   100c10 <terminal_writestring>
  103117:	80 3e 00             	cmpb   $0x0,(%esi)
  10311a:	ba 16 be 10 00       	mov    $0x10be16,%edx
  10311f:	b8 11 be 10 00       	mov    $0x10be11,%eax
  103124:	0f 44 c2             	cmove  %edx,%eax
  103127:	89 04 24             	mov    %eax,(%esp)
  10312a:	e8 e1 da ff ff       	call   100c10 <terminal_writestring>
  10312f:	8b 46 03             	mov    0x3(%esi),%eax
  103132:	83 c4 10             	add    $0x10,%esp
  103135:	83 f8 02             	cmp    $0x2,%eax
  103138:	74 1e                	je     103158 <dma_dump_channels+0xd8>
  10313a:	76 84                	jbe    1030c0 <dma_dump_channels+0x40>
  10313c:	83 f8 03             	cmp    $0x3,%eax
  10313f:	75 97                	jne    1030d8 <dma_dump_channels+0x58>
  103141:	83 ec 0c             	sub    $0xc,%esp
  103144:	68 89 be 10 00       	push   $0x10be89
  103149:	e8 c2 da ff ff       	call   100c10 <terminal_writestring>
  10314e:	83 c4 10             	add    $0x10,%esp
  103151:	eb 85                	jmp    1030d8 <dma_dump_channels+0x58>
  103153:	2e 8d 74 26 00       	lea    %cs:0x0(%esi,%eiz,1),%esi
  103158:	83 ec 0c             	sub    $0xc,%esp
  10315b:	68 7e be 10 00       	push   $0x10be7e
  103160:	e8 ab da ff ff       	call   100c10 <terminal_writestring>
  103165:	83 c4 10             	add    $0x10,%esp
  103168:	e9 6b ff ff ff       	jmp    1030d8 <dma_dump_channels+0x58>
  10316d:	8d 76 00             	lea    0x0(%esi),%esi
  103170:	83 ec 0c             	sub    $0xc,%esp
  103173:	68 68 be 10 00       	push   $0x10be68
  103178:	e8 93 da ff ff       	call   100c10 <terminal_writestring>
  10317d:	83 c4 10             	add    $0x10,%esp
  103180:	e9 53 ff ff ff       	jmp    1030d8 <dma_dump_channels+0x58>
  103185:	8d 76 00             	lea    0x0(%esi),%esi
  103188:	83 ec 0c             	sub    $0xc,%esp
  10318b:	68 f7 bd 10 00       	push   $0x10bdf7
  103190:	e8 7b da ff ff       	call   100c10 <terminal_writestring>
  103195:	83 c4 10             	add    $0x10,%esp
  103198:	8d 65 f4             	lea    -0xc(%ebp),%esp
  10319b:	5b                   	pop    %ebx
  10319c:	5e                   	pop    %esi
  10319d:	5f                   	pop    %edi
  10319e:	5d                   	pop    %ebp
  10319f:	c3                   	ret

001031a0 <dma_verify_transfer>:
  1031a0:	55                   	push   %ebp
  1031a1:	89 e5                	mov    %esp,%ebp
  1031a3:	57                   	push   %edi
  1031a4:	56                   	push   %esi
  1031a5:	53                   	push   %ebx
  1031a6:	83 ec 1c             	sub    $0x1c,%esp
  1031a9:	8b 45 10             	mov    0x10(%ebp),%eax
  1031ac:	8b 55 0c             	mov    0xc(%ebp),%edx
  1031af:	85 c0                	test   %eax,%eax
  1031b1:	0f 84 d9 00 00 00    	je     103290 <dma_verify_transfer+0xf0>
  1031b7:	31 db                	xor    %ebx,%ebx
  1031b9:	31 f6                	xor    %esi,%esi
  1031bb:	eb 0e                	jmp    1031cb <dma_verify_transfer+0x2b>
  1031bd:	8d 76 00             	lea    0x0(%esi),%esi
  1031c0:	83 c3 01             	add    $0x1,%ebx
  1031c3:	39 d8                	cmp    %ebx,%eax
  1031c5:	0f 84 bb 00 00 00    	je     103286 <dma_verify_transfer+0xe6>
  1031cb:	8b 7d 08             	mov    0x8(%ebp),%edi
  1031ce:	0f b6 0c 1a          	movzbl (%edx,%ebx,1),%ecx
  1031d2:	38 0c 1f             	cmp    %cl,(%edi,%ebx,1)
  1031d5:	74 e9                	je     1031c0 <dma_verify_transfer+0x20>
  1031d7:	83 c6 01             	add    $0x1,%esi
  1031da:	83 fe 0a             	cmp    $0xa,%esi
  1031dd:	7f e1                	jg     1031c0 <dma_verify_transfer+0x20>
  1031df:	83 ec 0c             	sub    $0xc,%esp
  1031e2:	89 55 0c             	mov    %edx,0xc(%ebp)
  1031e5:	89 45 10             	mov    %eax,0x10(%ebp)
  1031e8:	68 94 be 10 00       	push   $0x10be94
  1031ed:	e8 1e da ff ff       	call   100c10 <terminal_writestring>
  1031f2:	83 c4 0c             	add    $0xc,%esp
  1031f5:	8d 45 d8             	lea    -0x28(%ebp),%eax
  1031f8:	6a 0a                	push   $0xa
  1031fa:	50                   	push   %eax
  1031fb:	53                   	push   %ebx
  1031fc:	e8 2f d7 ff ff       	call   100930 <itoa>
  103201:	8d 45 d8             	lea    -0x28(%ebp),%eax
  103204:	89 04 24             	mov    %eax,(%esp)
  103207:	e8 04 da ff ff       	call   100c10 <terminal_writestring>
  10320c:	c7 04 24 1d bb 10 00 	movl   $0x10bb1d,(%esp)
  103213:	e8 f8 d9 ff ff       	call   100c10 <terminal_writestring>
  103218:	83 c4 0c             	add    $0xc,%esp
  10321b:	8d 45 d8             	lea    -0x28(%ebp),%eax
  10321e:	6a 10                	push   $0x10
  103220:	50                   	push   %eax
  103221:	8b 45 08             	mov    0x8(%ebp),%eax
  103224:	0f b6 0c 18          	movzbl (%eax,%ebx,1),%ecx
  103228:	51                   	push   %ecx
  103229:	e8 02 d7 ff ff       	call   100930 <itoa>
  10322e:	8d 45 d8             	lea    -0x28(%ebp),%eax
  103231:	89 04 24             	mov    %eax,(%esp)
  103234:	e8 d7 d9 ff ff       	call   100c10 <terminal_writestring>
  103239:	c7 04 24 aa be 10 00 	movl   $0x10beaa,(%esp)
  103240:	e8 cb d9 ff ff       	call   100c10 <terminal_writestring>
  103245:	83 c4 0c             	add    $0xc,%esp
  103248:	8d 45 d8             	lea    -0x28(%ebp),%eax
  10324b:	6a 10                	push   $0x10
  10324d:	50                   	push   %eax
  10324e:	8b 55 0c             	mov    0xc(%ebp),%edx
  103251:	0f b6 0c 1a          	movzbl (%edx,%ebx,1),%ecx
  103255:	83 c3 01             	add    $0x1,%ebx
  103258:	51                   	push   %ecx
  103259:	e8 d2 d6 ff ff       	call   100930 <itoa>
  10325e:	8d 45 d8             	lea    -0x28(%ebp),%eax
  103261:	89 04 24             	mov    %eax,(%esp)
  103264:	e8 a7 d9 ff ff       	call   100c10 <terminal_writestring>
  103269:	c7 04 24 a9 bf 10 00 	movl   $0x10bfa9,(%esp)
  103270:	e8 9b d9 ff ff       	call   100c10 <terminal_writestring>
  103275:	8b 45 10             	mov    0x10(%ebp),%eax
  103278:	8b 55 0c             	mov    0xc(%ebp),%edx
  10327b:	83 c4 10             	add    $0x10,%esp
  10327e:	39 d8                	cmp    %ebx,%eax
  103280:	0f 85 45 ff ff ff    	jne    1031cb <dma_verify_transfer+0x2b>
  103286:	8d 65 f4             	lea    -0xc(%ebp),%esp
  103289:	89 f0                	mov    %esi,%eax
  10328b:	5b                   	pop    %ebx
  10328c:	5e                   	pop    %esi
  10328d:	5f                   	pop    %edi
  10328e:	5d                   	pop    %ebp
  10328f:	c3                   	ret
  103290:	8d 65 f4             	lea    -0xc(%ebp),%esp
  103293:	31 f6                	xor    %esi,%esi
  103295:	5b                   	pop    %ebx
  103296:	89 f0                	mov    %esi,%eax
  103298:	5e                   	pop    %esi
  103299:	5f                   	pop    %edi
  10329a:	5d                   	pop    %ebp
  10329b:	c3                   	ret
  10329c:	8d 74 26 00          	lea    0x0(%esi,%eiz,1),%esi

001032a0 <dma_demo>:
  1032a0:	55                   	push   %ebp
  1032a1:	89 e5                	mov    %esp,%ebp
  1032a3:	56                   	push   %esi
  1032a4:	53                   	push   %ebx
  1032a5:	83 ec 4c             	sub    $0x4c,%esp
  1032a8:	68 b4 ce 10 00       	push   $0x10ceb4
  1032ad:	e8 5e d9 ff ff       	call   100c10 <terminal_writestring>
  1032b2:	c7 04 24 af be 10 00 	movl   $0x10beaf,(%esp)
  1032b9:	e8 52 d9 ff ff       	call   100c10 <terminal_writestring>
  1032be:	c7 04 24 dc ce 10 00 	movl   $0x10cedc,(%esp)
  1032c5:	e8 46 d9 ff ff       	call   100c10 <terminal_writestring>
  1032ca:	c7 04 24 00 cf 10 00 	movl   $0x10cf00,(%esp)
  1032d1:	e8 3a d9 ff ff       	call   100c10 <terminal_writestring>
  1032d6:	83 c4 10             	add    $0x10,%esp
  1032d9:	b8 00 00 f0 00       	mov    $0xf00000,%eax
  1032de:	66 90                	xchg   %ax,%ax
  1032e0:	88 00                	mov    %al,(%eax)
  1032e2:	8d 50 01             	lea    0x1(%eax),%edx
  1032e5:	83 c0 02             	add    $0x2,%eax
  1032e8:	88 12                	mov    %dl,(%edx)
  1032ea:	3d 00 01 f0 00       	cmp    $0xf00100,%eax
  1032ef:	75 ef                	jne    1032e0 <dma_demo+0x40>
  1032f1:	83 ec 04             	sub    $0x4,%esp
  1032f4:	8d 5d b8             	lea    -0x48(%ebp),%ebx
  1032f7:	be 00 00 f0 00       	mov    $0xf00000,%esi
  1032fc:	68 00 01 00 00       	push   $0x100
  103301:	68 aa 00 00 00       	push   $0xaa
  103306:	68 00 10 f0 00       	push   $0xf01000
  10330b:	e8 90 d1 ff ff       	call   1004a0 <memset>
  103310:	c7 04 24 c7 be 10 00 	movl   $0x10bec7,(%esp)
  103317:	e8 f4 d8 ff ff       	call   100c10 <terminal_writestring>
  10331c:	83 c4 0c             	add    $0xc,%esp
  10331f:	6a 10                	push   $0x10
  103321:	53                   	push   %ebx
  103322:	68 00 00 f0 00       	push   $0xf00000
  103327:	e8 04 d6 ff ff       	call   100930 <itoa>
  10332c:	89 1c 24             	mov    %ebx,(%esp)
  10332f:	e8 dc d8 ff ff       	call   100c10 <terminal_writestring>
  103334:	c7 04 24 a9 bf 10 00 	movl   $0x10bfa9,(%esp)
  10333b:	e8 d0 d8 ff ff       	call   100c10 <terminal_writestring>
  103340:	c7 04 24 d4 be 10 00 	movl   $0x10bed4,(%esp)
  103347:	e8 c4 d8 ff ff       	call   100c10 <terminal_writestring>
  10334c:	83 c4 0c             	add    $0xc,%esp
  10334f:	6a 10                	push   $0x10
  103351:	53                   	push   %ebx
  103352:	68 00 10 f0 00       	push   $0xf01000
  103357:	e8 d4 d5 ff ff       	call   100930 <itoa>
  10335c:	89 1c 24             	mov    %ebx,(%esp)
  10335f:	e8 ac d8 ff ff       	call   100c10 <terminal_writestring>
  103364:	c7 04 24 a9 bf 10 00 	movl   $0x10bfa9,(%esp)
  10336b:	e8 a0 d8 ff ff       	call   100c10 <terminal_writestring>
  103370:	c7 04 24 28 cf 10 00 	movl   $0x10cf28,(%esp)
  103377:	e8 94 d8 ff ff       	call   100c10 <terminal_writestring>
  10337c:	83 c4 10             	add    $0x10,%esp
  10337f:	eb 2a                	jmp    1033ab <dma_demo+0x10b>
  103381:	8d b4 26 00 00 00 00 	lea    0x0(%esi,%eiz,1),%esi
  103388:	83 ec 0c             	sub    $0xc,%esp
  10338b:	83 c6 01             	add    $0x1,%esi
  10338e:	53                   	push   %ebx
  10338f:	e8 7c d8 ff ff       	call   100c10 <terminal_writestring>
  103394:	c7 04 24 a5 b9 10 00 	movl   $0x10b9a5,(%esp)
  10339b:	e8 70 d8 ff ff       	call   100c10 <terminal_writestring>
  1033a0:	83 c4 10             	add    $0x10,%esp
  1033a3:	81 fe 10 00 f0 00    	cmp    $0xf00010,%esi
  1033a9:	74 29                	je     1033d4 <dma_demo+0x134>
  1033ab:	83 ec 04             	sub    $0x4,%esp
  1033ae:	6a 10                	push   $0x10
  1033b0:	53                   	push   %ebx
  1033b1:	0f b6 06             	movzbl (%esi),%eax
  1033b4:	50                   	push   %eax
  1033b5:	e8 76 d5 ff ff       	call   100930 <itoa>
  1033ba:	83 c4 10             	add    $0x10,%esp
  1033bd:	80 3e 0f             	cmpb   $0xf,(%esi)
  1033c0:	77 c6                	ja     103388 <dma_demo+0xe8>
  1033c2:	83 ec 0c             	sub    $0xc,%esp
  1033c5:	68 a5 bd 10 00       	push   $0x10bda5
  1033ca:	e8 41 d8 ff ff       	call   100c10 <terminal_writestring>
  1033cf:	83 c4 10             	add    $0x10,%esp
  1033d2:	eb b4                	jmp    103388 <dma_demo+0xe8>
  1033d4:	83 ec 0c             	sub    $0xc,%esp
  1033d7:	be 00 10 f0 00       	mov    $0xf01000,%esi
  1033dc:	68 a9 bf 10 00       	push   $0x10bfa9
  1033e1:	e8 2a d8 ff ff       	call   100c10 <terminal_writestring>
  1033e6:	c7 04 24 4c cf 10 00 	movl   $0x10cf4c,(%esp)
  1033ed:	e8 1e d8 ff ff       	call   100c10 <terminal_writestring>
  1033f2:	83 c4 10             	add    $0x10,%esp
  1033f5:	eb 2c                	jmp    103423 <dma_demo+0x183>
  1033f7:	90                   	nop
  1033f8:	2e 8d b4 26 00 00 00 	lea    %cs:0x0(%esi,%eiz,1),%esi
  1033ff:	00 
  103400:	83 ec 0c             	sub    $0xc,%esp
  103403:	83 c6 01             	add    $0x1,%esi
  103406:	53                   	push   %ebx
  103407:	e8 04 d8 ff ff       	call   100c10 <terminal_writestring>
  10340c:	c7 04 24 a5 b9 10 00 	movl   $0x10b9a5,(%esp)
  103413:	e8 f8 d7 ff ff       	call   100c10 <terminal_writestring>
  103418:	83 c4 10             	add    $0x10,%esp
  10341b:	81 fe 10 10 f0 00    	cmp    $0xf01010,%esi
  103421:	74 29                	je     10344c <dma_demo+0x1ac>
  103423:	83 ec 04             	sub    $0x4,%esp
  103426:	6a 10                	push   $0x10
  103428:	53                   	push   %ebx
  103429:	0f b6 06             	movzbl (%esi),%eax
  10342c:	50                   	push   %eax
  10342d:	e8 fe d4 ff ff       	call   100930 <itoa>
  103432:	83 c4 10             	add    $0x10,%esp
  103435:	80 3e 0f             	cmpb   $0xf,(%esi)
  103438:	77 c6                	ja     103400 <dma_demo+0x160>
  10343a:	83 ec 0c             	sub    $0xc,%esp
  10343d:	68 a5 bd 10 00       	push   $0x10bda5
  103442:	e8 c9 d7 ff ff       	call   100c10 <terminal_writestring>
  103447:	83 c4 10             	add    $0x10,%esp
  10344a:	eb b4                	jmp    103400 <dma_demo+0x160>
  10344c:	83 ec 0c             	sub    $0xc,%esp
  10344f:	68 a9 bf 10 00       	push   $0x10bfa9
  103454:	e8 b7 d7 ff ff       	call   100c10 <terminal_writestring>
  103459:	c7 04 24 e1 be 10 00 	movl   $0x10bee1,(%esp)
  103460:	e8 ab d7 ff ff       	call   100c10 <terminal_writestring>
  103465:	83 c4 0c             	add    $0xc,%esp
  103468:	68 00 01 00 00       	push   $0x100
  10346d:	68 00 00 f0 00       	push   $0xf00000
  103472:	68 00 10 f0 00       	push   $0xf01000
  103477:	e8 94 f6 ff ff       	call   102b10 <dma_memcpy_phys>
  10347c:	83 c4 10             	add    $0x10,%esp
  10347f:	89 c6                	mov    %eax,%esi
  103481:	85 c0                	test   %eax,%eax
  103483:	0f 88 2c 01 00 00    	js     1035b5 <dma_demo+0x315>
  103489:	83 ec 0c             	sub    $0xc,%esp
  10348c:	68 fe be 10 00       	push   $0x10befe
  103491:	e8 7a d7 ff ff       	call   100c10 <terminal_writestring>
  103496:	83 c4 0c             	add    $0xc,%esp
  103499:	6a 0a                	push   $0xa
  10349b:	53                   	push   %ebx
  10349c:	56                   	push   %esi
  10349d:	be 00 10 f0 00       	mov    $0xf01000,%esi
  1034a2:	e8 89 d4 ff ff       	call   100930 <itoa>
  1034a7:	89 1c 24             	mov    %ebx,(%esp)
  1034aa:	e8 61 d7 ff ff       	call   100c10 <terminal_writestring>
  1034af:	c7 04 24 19 bf 10 00 	movl   $0x10bf19,(%esp)
  1034b6:	e8 55 d7 ff ff       	call   100c10 <terminal_writestring>
  1034bb:	c7 04 24 a0 cf 10 00 	movl   $0x10cfa0,(%esp)
  1034c2:	e8 49 d7 ff ff       	call   100c10 <terminal_writestring>
  1034c7:	83 c4 10             	add    $0x10,%esp
  1034ca:	eb 27                	jmp    1034f3 <dma_demo+0x253>
  1034cc:	8d 74 26 00          	lea    0x0(%esi,%eiz,1),%esi
  1034d0:	83 ec 0c             	sub    $0xc,%esp
  1034d3:	83 c6 01             	add    $0x1,%esi
  1034d6:	53                   	push   %ebx
  1034d7:	e8 34 d7 ff ff       	call   100c10 <terminal_writestring>
  1034dc:	c7 04 24 a5 b9 10 00 	movl   $0x10b9a5,(%esp)
  1034e3:	e8 28 d7 ff ff       	call   100c10 <terminal_writestring>
  1034e8:	83 c4 10             	add    $0x10,%esp
  1034eb:	81 fe 10 10 f0 00    	cmp    $0xf01010,%esi
  1034f1:	74 29                	je     10351c <dma_demo+0x27c>
  1034f3:	83 ec 04             	sub    $0x4,%esp
  1034f6:	6a 10                	push   $0x10
  1034f8:	53                   	push   %ebx
  1034f9:	0f b6 06             	movzbl (%esi),%eax
  1034fc:	50                   	push   %eax
  1034fd:	e8 2e d4 ff ff       	call   100930 <itoa>
  103502:	83 c4 10             	add    $0x10,%esp
  103505:	80 3e 0f             	cmpb   $0xf,(%esi)
  103508:	77 c6                	ja     1034d0 <dma_demo+0x230>
  10350a:	83 ec 0c             	sub    $0xc,%esp
  10350d:	68 a5 bd 10 00       	push   $0x10bda5
  103512:	e8 f9 d6 ff ff       	call   100c10 <terminal_writestring>
  103517:	83 c4 10             	add    $0x10,%esp
  10351a:	eb b4                	jmp    1034d0 <dma_demo+0x230>
  10351c:	83 ec 0c             	sub    $0xc,%esp
  10351f:	68 a9 bf 10 00       	push   $0x10bfa9
  103524:	e8 e7 d6 ff ff       	call   100c10 <terminal_writestring>
  103529:	83 c4 0c             	add    $0xc,%esp
  10352c:	68 00 01 00 00       	push   $0x100
  103531:	68 00 10 f0 00       	push   $0xf01000
  103536:	68 00 00 f0 00       	push   $0xf00000
  10353b:	e8 60 fc ff ff       	call   1031a0 <dma_verify_transfer>
  103540:	83 c4 10             	add    $0x10,%esp
  103543:	89 c6                	mov    %eax,%esi
  103545:	85 c0                	test   %eax,%eax
  103547:	74 5a                	je     1035a3 <dma_demo+0x303>
  103549:	83 ec 0c             	sub    $0xc,%esp
  10354c:	68 fc cf 10 00       	push   $0x10cffc
  103551:	e8 ba d6 ff ff       	call   100c10 <terminal_writestring>
  103556:	83 c4 0c             	add    $0xc,%esp
  103559:	6a 0a                	push   $0xa
  10355b:	53                   	push   %ebx
  10355c:	56                   	push   %esi
  10355d:	e8 ce d3 ff ff       	call   100930 <itoa>
  103562:	89 1c 24             	mov    %ebx,(%esp)
  103565:	e8 a6 d6 ff ff       	call   100c10 <terminal_writestring>
  10356a:	c7 04 24 29 bf 10 00 	movl   $0x10bf29,(%esp)
  103571:	e8 9a d6 ff ff       	call   100c10 <terminal_writestring>
  103576:	83 c4 10             	add    $0x10,%esp
  103579:	83 ec 04             	sub    $0x4,%esp
  10357c:	68 00 01 00 00       	push   $0x100
  103581:	6a 00                	push   $0x0
  103583:	68 00 10 f0 00       	push   $0xf01000
  103588:	e8 13 cf ff ff       	call   1004a0 <memset>
  10358d:	c7 04 24 1c d0 10 00 	movl   $0x10d01c,(%esp)
  103594:	e8 77 d6 ff ff       	call   100c10 <terminal_writestring>
  103599:	83 c4 10             	add    $0x10,%esp
  10359c:	8d 65 f8             	lea    -0x8(%ebp),%esp
  10359f:	5b                   	pop    %ebx
  1035a0:	5e                   	pop    %esi
  1035a1:	5d                   	pop    %ebp
  1035a2:	c3                   	ret
  1035a3:	83 ec 0c             	sub    $0xc,%esp
  1035a6:	68 cc cf 10 00       	push   $0x10cfcc
  1035ab:	e8 60 d6 ff ff       	call   100c10 <terminal_writestring>
  1035b0:	83 c4 10             	add    $0x10,%esp
  1035b3:	eb c4                	jmp    103579 <dma_demo+0x2d9>
  1035b5:	83 ec 0c             	sub    $0xc,%esp
  1035b8:	68 78 cf 10 00       	push   $0x10cf78
  1035bd:	e8 4e d6 ff ff       	call   100c10 <terminal_writestring>
  1035c2:	83 c4 0c             	add    $0xc,%esp
  1035c5:	6a 0a                	push   $0xa
  1035c7:	53                   	push   %ebx
  1035c8:	56                   	push   %esi
  1035c9:	e8 62 d3 ff ff       	call   100930 <itoa>
  1035ce:	89 1c 24             	mov    %ebx,(%esp)
  1035d1:	e8 3a d6 ff ff       	call   100c10 <terminal_writestring>
  1035d6:	c7 04 24 a9 bf 10 00 	movl   $0x10bfa9,(%esp)
  1035dd:	e8 2e d6 ff ff       	call   100c10 <terminal_writestring>
  1035e2:	83 c4 10             	add    $0x10,%esp
  1035e5:	eb 92                	jmp    103579 <dma_demo+0x2d9>
  1035e7:	66 90                	xchg   %ax,%ax
  1035e9:	66 90                	xchg   %ax,%ax
  1035eb:	66 90                	xchg   %ax,%ax
  1035ed:	66 90                	xchg   %ax,%ax
  1035ef:	66 90                	xchg   %ax,%ax
  1035f1:	66 90                	xchg   %ax,%ax
  1035f3:	66 90                	xchg   %ax,%ax
  1035f5:	66 90                	xchg   %ax,%ax
  1035f7:	66 90                	xchg   %ax,%ax
  1035f9:	66 90                	xchg   %ax,%ax
  1035fb:	66 90                	xchg   %ax,%ax
  1035fd:	66 90                	xchg   %ax,%ax
  1035ff:	90                   	nop

00103600 <buddy_free_pages.part.0>:
  103600:	55                   	push   %ebp
  103601:	89 e5                	mov    %esp,%ebp
  103603:	57                   	push   %edi
  103604:	56                   	push   %esi
  103605:	53                   	push   %ebx
  103606:	89 c3                	mov    %eax,%ebx
  103608:	89 d0                	mov    %edx,%eax
  10360a:	ba 01 00 00 00       	mov    $0x1,%edx
  10360f:	89 c1                	mov    %eax,%ecx
  103611:	d3 e2                	shl    %cl,%edx
  103613:	89 d9                	mov    %ebx,%ecx
  103615:	89 d6                	mov    %edx,%esi
  103617:	83 ec 08             	sub    $0x8,%esp
  10361a:	89 5d ec             	mov    %ebx,-0x14(%ebp)
  10361d:	8b 15 30 45 13 00    	mov    0x134530,%edx
  103623:	89 75 f0             	mov    %esi,-0x10(%ebp)
  103626:	8d 3c 33             	lea    (%ebx,%esi,1),%edi
  103629:	eb 0c                	jmp    103637 <buddy_free_pages.part.0+0x37>
  10362b:	2e 8d 74 26 00       	lea    %cs:0x0(%esi,%eiz,1),%esi
  103630:	83 c1 01             	add    $0x1,%ecx
  103633:	39 f9                	cmp    %edi,%ecx
  103635:	74 29                	je     103660 <buddy_free_pages.part.0+0x60>
  103637:	39 d1                	cmp    %edx,%ecx
  103639:	73 f5                	jae    103630 <buddy_free_pages.part.0+0x30>
  10363b:	81 f9 ff ff 0f 00    	cmp    $0xfffff,%ecx
  103641:	77 ed                	ja     103630 <buddy_free_pages.part.0+0x30>
  103643:	89 cb                	mov    %ecx,%ebx
  103645:	be 01 00 00 00       	mov    $0x1,%esi
  10364a:	d3 e6                	shl    %cl,%esi
  10364c:	c1 eb 05             	shr    $0x5,%ebx
  10364f:	83 c1 01             	add    $0x1,%ecx
  103652:	f7 d6                	not    %esi
  103654:	21 34 9d 00 45 11 00 	and    %esi,0x114500(,%ebx,4)
  10365b:	39 f9                	cmp    %edi,%ecx
  10365d:	75 d8                	jne    103637 <buddy_free_pages.part.0+0x37>
  10365f:	90                   	nop
  103660:	8b 75 f0             	mov    -0x10(%ebp),%esi
  103663:	8b 5d ec             	mov    -0x14(%ebp),%ebx
  103666:	29 35 2c 45 13 00    	sub    %esi,0x13452c
  10366c:	83 f8 0a             	cmp    $0xa,%eax
  10366f:	75 41                	jne    1036b2 <buddy_free_pages.part.0+0xb2>
  103671:	eb 7d                	jmp    1036f0 <buddy_free_pages.part.0+0xf0>
  103673:	2e 8d 74 26 00       	lea    %cs:0x0(%esi,%eiz,1),%esi
  103678:	89 37                	mov    %esi,(%edi)
  10367a:	85 f6                	test   %esi,%esi
  10367c:	74 0e                	je     10368c <buddy_free_pages.part.0+0x8c>
  10367e:	89 cf                	mov    %ecx,%edi
  103680:	c1 e7 04             	shl    $0x4,%edi
  103683:	8b bf 44 45 13 00    	mov    0x134544(%edi),%edi
  103689:	89 7e 04             	mov    %edi,0x4(%esi)
  10368c:	89 ce                	mov    %ecx,%esi
  10368e:	c1 e6 04             	shl    $0x4,%esi
  103691:	39 cb                	cmp    %ecx,%ebx
  103693:	c7 86 40 45 13 00 00 	movl   $0x0,0x134540(%esi)
  10369a:	00 00 00 
  10369d:	0f 47 d9             	cmova  %ecx,%ebx
  1036a0:	83 c0 01             	add    $0x1,%eax
  1036a3:	c7 86 44 45 13 00 00 	movl   $0x0,0x134544(%esi)
  1036aa:	00 00 00 
  1036ad:	83 f8 0a             	cmp    $0xa,%eax
  1036b0:	74 3e                	je     1036f0 <buddy_free_pages.part.0+0xf0>
  1036b2:	89 d9                	mov    %ebx,%ecx
  1036b4:	0f bb c1             	btc    %eax,%ecx
  1036b7:	39 d1                	cmp    %edx,%ecx
  1036b9:	73 35                	jae    1036f0 <buddy_free_pages.part.0+0xf0>
  1036bb:	89 ce                	mov    %ecx,%esi
  1036bd:	c1 e6 04             	shl    $0x4,%esi
  1036c0:	80 be 4c 45 13 00 00 	cmpb   $0x0,0x13454c(%esi)
  1036c7:	75 27                	jne    1036f0 <buddy_free_pages.part.0+0xf0>
  1036c9:	39 86 48 45 13 00    	cmp    %eax,0x134548(%esi)
  1036cf:	75 1f                	jne    1036f0 <buddy_free_pages.part.0+0xf0>
  1036d1:	8b be 44 45 13 00    	mov    0x134544(%esi),%edi
  1036d7:	8b b6 40 45 13 00    	mov    0x134540(%esi),%esi
  1036dd:	85 ff                	test   %edi,%edi
  1036df:	75 97                	jne    103678 <buddy_free_pages.part.0+0x78>
  1036e1:	89 34 85 00 45 13 00 	mov    %esi,0x134500(,%eax,4)
  1036e8:	eb 90                	jmp    10367a <buddy_free_pages.part.0+0x7a>
  1036ea:	8d b6 00 00 00 00    	lea    0x0(%esi),%esi
  1036f0:	c1 e3 04             	shl    $0x4,%ebx
  1036f3:	8b 0c 85 00 45 13 00 	mov    0x134500(,%eax,4),%ecx
  1036fa:	8d 93 40 45 13 00    	lea    0x134540(%ebx),%edx
  103700:	89 42 08             	mov    %eax,0x8(%edx)
  103703:	c6 42 0c 00          	movb   $0x0,0xc(%edx)
  103707:	c7 42 04 00 00 00 00 	movl   $0x0,0x4(%edx)
  10370e:	89 8b 40 45 13 00    	mov    %ecx,0x134540(%ebx)
  103714:	85 c9                	test   %ecx,%ecx
  103716:	74 03                	je     10371b <buddy_free_pages.part.0+0x11b>
  103718:	89 51 04             	mov    %edx,0x4(%ecx)
  10371b:	89 14 85 00 45 13 00 	mov    %edx,0x134500(,%eax,4)
  103722:	83 c4 08             	add    $0x8,%esp
  103725:	5b                   	pop    %ebx
  103726:	5e                   	pop    %esi
  103727:	5f                   	pop    %edi
  103728:	5d                   	pop    %ebp
  103729:	c3                   	ret
  10372a:	8d b6 00 00 00 00    	lea    0x0(%esi),%esi

00103730 <buddy_alloc_pages.part.0>:
  103730:	55                   	push   %ebp
  103731:	89 c1                	mov    %eax,%ecx
  103733:	89 e5                	mov    %esp,%ebp
  103735:	57                   	push   %edi
  103736:	89 c7                	mov    %eax,%edi
  103738:	56                   	push   %esi
  103739:	53                   	push   %ebx
  10373a:	83 ec 08             	sub    $0x8,%esp
  10373d:	8d 76 00             	lea    0x0(%esi),%esi
  103740:	8b 04 8d 00 45 13 00 	mov    0x134500(,%ecx,4),%eax
  103747:	85 c0                	test   %eax,%eax
  103749:	75 1d                	jne    103768 <buddy_alloc_pages.part.0+0x38>
  10374b:	83 c1 01             	add    $0x1,%ecx
  10374e:	83 f9 0b             	cmp    $0xb,%ecx
  103751:	75 ed                	jne    103740 <buddy_alloc_pages.part.0+0x10>
  103753:	c7 45 f0 ff ff ff ff 	movl   $0xffffffff,-0x10(%ebp)
  10375a:	8b 45 f0             	mov    -0x10(%ebp),%eax
  10375d:	83 c4 08             	add    $0x8,%esp
  103760:	5b                   	pop    %ebx
  103761:	5e                   	pop    %esi
  103762:	5f                   	pop    %edi
  103763:	5d                   	pop    %ebp
  103764:	c3                   	ret
  103765:	8d 76 00             	lea    0x0(%esi),%esi
  103768:	8b 1c 8d 00 45 13 00 	mov    0x134500(,%ecx,4),%ebx
  10376f:	8b 53 04             	mov    0x4(%ebx),%edx
  103772:	8b 03                	mov    (%ebx),%eax
  103774:	85 d2                	test   %edx,%edx
  103776:	0f 84 fc 00 00 00    	je     103878 <buddy_alloc_pages.part.0+0x148>
  10377c:	89 02                	mov    %eax,(%edx)
  10377e:	85 c0                	test   %eax,%eax
  103780:	74 03                	je     103785 <buddy_alloc_pages.part.0+0x55>
  103782:	89 50 04             	mov    %edx,0x4(%eax)
  103785:	89 d8                	mov    %ebx,%eax
  103787:	c7 03 00 00 00 00    	movl   $0x0,(%ebx)
  10378d:	2d 40 45 13 00       	sub    $0x134540,%eax
  103792:	c7 43 04 00 00 00 00 	movl   $0x0,0x4(%ebx)
  103799:	c1 f8 04             	sar    $0x4,%eax
  10379c:	89 45 f0             	mov    %eax,-0x10(%ebp)
  10379f:	39 cf                	cmp    %ecx,%edi
  1037a1:	73 52                	jae    1037f5 <buddy_alloc_pages.part.0+0xc5>
  1037a3:	89 5d ec             	mov    %ebx,-0x14(%ebp)
  1037a6:	66 90                	xchg   %ax,%ax
  1037a8:	2e 8d b4 26 00 00 00 	lea    %cs:0x0(%esi,%eiz,1),%esi
  1037af:	00 
  1037b0:	83 e9 01             	sub    $0x1,%ecx
  1037b3:	ba 01 00 00 00       	mov    $0x1,%edx
  1037b8:	d3 e2                	shl    %cl,%edx
  1037ba:	8b 34 8d 00 45 13 00 	mov    0x134500(,%ecx,4),%esi
  1037c1:	01 c2                	add    %eax,%edx
  1037c3:	c1 e2 04             	shl    $0x4,%edx
  1037c6:	8d 9a 40 45 13 00    	lea    0x134540(%edx),%ebx
  1037cc:	89 b2 40 45 13 00    	mov    %esi,0x134540(%edx)
  1037d2:	89 4b 08             	mov    %ecx,0x8(%ebx)
  1037d5:	c6 43 0c 00          	movb   $0x0,0xc(%ebx)
  1037d9:	c7 43 04 00 00 00 00 	movl   $0x0,0x4(%ebx)
  1037e0:	85 f6                	test   %esi,%esi
  1037e2:	74 03                	je     1037e7 <buddy_alloc_pages.part.0+0xb7>
  1037e4:	89 5e 04             	mov    %ebx,0x4(%esi)
  1037e7:	89 1c 8d 00 45 13 00 	mov    %ebx,0x134500(,%ecx,4)
  1037ee:	39 f9                	cmp    %edi,%ecx
  1037f0:	75 be                	jne    1037b0 <buddy_alloc_pages.part.0+0x80>
  1037f2:	8b 5d ec             	mov    -0x14(%ebp),%ebx
  1037f5:	89 f9                	mov    %edi,%ecx
  1037f7:	be 01 00 00 00       	mov    $0x1,%esi
  1037fc:	c6 43 0c 01          	movb   $0x1,0xc(%ebx)
  103800:	89 7b 08             	mov    %edi,0x8(%ebx)
  103803:	d3 e6                	shl    %cl,%esi
  103805:	89 c1                	mov    %eax,%ecx
  103807:	8d 14 06             	lea    (%esi,%eax,1),%edx
  10380a:	eb 34                	jmp    103840 <buddy_alloc_pages.part.0+0x110>
  10380c:	8d 74 26 00          	lea    0x0(%esi,%eiz,1),%esi
  103810:	2e 8d b4 26 00 00 00 	lea    %cs:0x0(%esi,%eiz,1),%esi
  103817:	00 
  103818:	2e 8d b4 26 00 00 00 	lea    %cs:0x0(%esi,%eiz,1),%esi
  10381f:	00 
  103820:	2e 8d b4 26 00 00 00 	lea    %cs:0x0(%esi,%eiz,1),%esi
  103827:	00 
  103828:	2e 8d b4 26 00 00 00 	lea    %cs:0x0(%esi,%eiz,1),%esi
  10382f:	00 
  103830:	2e 8d b4 26 00 00 00 	lea    %cs:0x0(%esi,%eiz,1),%esi
  103837:	00 
  103838:	2e 8d b4 26 00 00 00 	lea    %cs:0x0(%esi,%eiz,1),%esi
  10383f:	00 
  103840:	81 f9 ff ff 0f 00    	cmp    $0xfffff,%ecx
  103846:	77 13                	ja     10385b <buddy_alloc_pages.part.0+0x12b>
  103848:	89 c8                	mov    %ecx,%eax
  10384a:	bf 01 00 00 00       	mov    $0x1,%edi
  10384f:	c1 e8 05             	shr    $0x5,%eax
  103852:	d3 e7                	shl    %cl,%edi
  103854:	09 3c 85 00 45 11 00 	or     %edi,0x114500(,%eax,4)
  10385b:	83 c1 01             	add    $0x1,%ecx
  10385e:	39 ca                	cmp    %ecx,%edx
  103860:	75 de                	jne    103840 <buddy_alloc_pages.part.0+0x110>
  103862:	8b 45 f0             	mov    -0x10(%ebp),%eax
  103865:	01 35 2c 45 13 00    	add    %esi,0x13452c
  10386b:	83 c4 08             	add    $0x8,%esp
  10386e:	5b                   	pop    %ebx
  10386f:	5e                   	pop    %esi
  103870:	5f                   	pop    %edi
  103871:	5d                   	pop    %ebp
  103872:	c3                   	ret
  103873:	2e 8d 74 26 00       	lea    %cs:0x0(%esi,%eiz,1),%esi
  103878:	89 04 8d 00 45 13 00 	mov    %eax,0x134500(,%ecx,4)
  10387f:	e9 fa fe ff ff       	jmp    10377e <buddy_alloc_pages.part.0+0x4e>
  103884:	8d 74 26 00          	lea    0x0(%esi,%eiz,1),%esi
  103888:	2e 8d b4 26 00 00 00 	lea    %cs:0x0(%esi,%eiz,1),%esi
  10388f:	00 

00103890 <alloc_page>:
  103890:	55                   	push   %ebp
  103891:	31 c0                	xor    %eax,%eax
  103893:	89 e5                	mov    %esp,%ebp
  103895:	53                   	push   %ebx
  103896:	83 ec 04             	sub    $0x4,%esp
  103899:	e8 92 fe ff ff       	call   103730 <buddy_alloc_pages.part.0>
  10389e:	83 f8 ff             	cmp    $0xffffffff,%eax
  1038a1:	74 25                	je     1038c8 <alloc_page+0x38>
  1038a3:	83 ec 04             	sub    $0x4,%esp
  1038a6:	c1 e0 0c             	shl    $0xc,%eax
  1038a9:	68 00 10 00 00       	push   $0x1000
  1038ae:	89 c3                	mov    %eax,%ebx
  1038b0:	6a 00                	push   $0x0
  1038b2:	50                   	push   %eax
  1038b3:	e8 e8 cb ff ff       	call   1004a0 <memset>
  1038b8:	83 c4 10             	add    $0x10,%esp
  1038bb:	89 d8                	mov    %ebx,%eax
  1038bd:	8b 5d fc             	mov    -0x4(%ebp),%ebx
  1038c0:	c9                   	leave
  1038c1:	c3                   	ret
  1038c2:	8d b6 00 00 00 00    	lea    0x0(%esi),%esi
  1038c8:	83 ec 0c             	sub    $0xc,%esp
  1038cb:	31 db                	xor    %ebx,%ebx
  1038cd:	68 38 bf 10 00       	push   $0x10bf38
  1038d2:	e8 39 d3 ff ff       	call   100c10 <terminal_writestring>
  1038d7:	83 c4 10             	add    $0x10,%esp
  1038da:	eb df                	jmp    1038bb <alloc_page+0x2b>
  1038dc:	8d 74 26 00          	lea    0x0(%esi,%eiz,1),%esi

001038e0 <free_page>:
  1038e0:	55                   	push   %ebp
  1038e1:	89 e5                	mov    %esp,%ebp
  1038e3:	8b 45 08             	mov    0x8(%ebp),%eax
  1038e6:	85 c0                	test   %eax,%eax
  1038e8:	74 0b                	je     1038f5 <free_page+0x15>
  1038ea:	c1 e8 0c             	shr    $0xc,%eax
  1038ed:	3b 05 30 45 13 00    	cmp    0x134530,%eax
  1038f3:	72 0b                	jb     103900 <free_page+0x20>
  1038f5:	5d                   	pop    %ebp
  1038f6:	c3                   	ret
  1038f7:	90                   	nop
  1038f8:	2e 8d b4 26 00 00 00 	lea    %cs:0x0(%esi,%eiz,1),%esi
  1038ff:	00 
  103900:	31 d2                	xor    %edx,%edx
  103902:	5d                   	pop    %ebp
  103903:	e9 f8 fc ff ff       	jmp    103600 <buddy_free_pages.part.0>
  103908:	2e 8d b4 26 00 00 00 	lea    %cs:0x0(%esi,%eiz,1),%esi
  10390f:	00 

00103910 <alloc_pages>:
  103910:	55                   	push   %ebp
  103911:	89 e5                	mov    %esp,%ebp
  103913:	83 ec 18             	sub    $0x18,%esp
  103916:	8b 4d 08             	mov    0x8(%ebp),%ecx
  103919:	85 c9                	test   %ecx,%ecx
  10391b:	74 31                	je     10394e <alloc_pages+0x3e>
  10391d:	ba 01 00 00 00       	mov    $0x1,%edx
  103922:	31 c0                	xor    %eax,%eax
  103924:	8d 74 26 00          	lea    0x0(%esi,%eiz,1),%esi
  103928:	2e 8d b4 26 00 00 00 	lea    %cs:0x0(%esi,%eiz,1),%esi
  10392f:	00 
  103930:	39 ca                	cmp    %ecx,%edx
  103932:	73 24                	jae    103958 <alloc_pages+0x48>
  103934:	83 c0 01             	add    $0x1,%eax
  103937:	01 d2                	add    %edx,%edx
  103939:	83 f8 0b             	cmp    $0xb,%eax
  10393c:	75 f2                	jne    103930 <alloc_pages+0x20>
  10393e:	83 ec 0c             	sub    $0xc,%esp
  103941:	68 44 d0 10 00       	push   $0x10d044
  103946:	e8 c5 d2 ff ff       	call   100c10 <terminal_writestring>
  10394b:	83 c4 10             	add    $0x10,%esp
  10394e:	c9                   	leave
  10394f:	31 d2                	xor    %edx,%edx
  103951:	89 d0                	mov    %edx,%eax
  103953:	c3                   	ret
  103954:	8d 74 26 00          	lea    0x0(%esi,%eiz,1),%esi
  103958:	89 4d 08             	mov    %ecx,0x8(%ebp)
  10395b:	e8 d0 fd ff ff       	call   103730 <buddy_alloc_pages.part.0>
  103960:	8b 4d 08             	mov    0x8(%ebp),%ecx
  103963:	83 f8 ff             	cmp    $0xffffffff,%eax
  103966:	74 1f                	je     103987 <alloc_pages+0x77>
  103968:	c1 e0 0c             	shl    $0xc,%eax
  10396b:	83 ec 04             	sub    $0x4,%esp
  10396e:	c1 e1 0c             	shl    $0xc,%ecx
  103971:	51                   	push   %ecx
  103972:	6a 00                	push   $0x0
  103974:	50                   	push   %eax
  103975:	89 45 f4             	mov    %eax,-0xc(%ebp)
  103978:	e8 23 cb ff ff       	call   1004a0 <memset>
  10397d:	8b 55 f4             	mov    -0xc(%ebp),%edx
  103980:	83 c4 10             	add    $0x10,%esp
  103983:	c9                   	leave
  103984:	89 d0                	mov    %edx,%eax
  103986:	c3                   	ret
  103987:	83 ec 0c             	sub    $0xc,%esp
  10398a:	68 54 bf 10 00       	push   $0x10bf54
  10398f:	e8 7c d2 ff ff       	call   100c10 <terminal_writestring>
  103994:	83 c4 10             	add    $0x10,%esp
  103997:	eb b5                	jmp    10394e <alloc_pages+0x3e>
  103999:	8d b4 26 00 00 00 00 	lea    0x0(%esi,%eiz,1),%esi

001039a0 <free_pages>:
  1039a0:	55                   	push   %ebp
  1039a1:	89 e5                	mov    %esp,%ebp
  1039a3:	53                   	push   %ebx
  1039a4:	8b 55 08             	mov    0x8(%ebp),%edx
  1039a7:	8b 45 0c             	mov    0xc(%ebp),%eax
  1039aa:	85 d2                	test   %edx,%edx
  1039ac:	74 42                	je     1039f0 <free_pages+0x50>
  1039ae:	85 c0                	test   %eax,%eax
  1039b0:	74 3e                	je     1039f0 <free_pages+0x50>
  1039b2:	89 d3                	mov    %edx,%ebx
  1039b4:	c1 eb 0c             	shr    $0xc,%ebx
  1039b7:	3b 1d 30 45 13 00    	cmp    0x134530,%ebx
  1039bd:	73 31                	jae    1039f0 <free_pages+0x50>
  1039bf:	83 f8 01             	cmp    $0x1,%eax
  1039c2:	74 34                	je     1039f8 <free_pages+0x58>
  1039c4:	ba 01 00 00 00       	mov    $0x1,%edx
  1039c9:	31 c9                	xor    %ecx,%ecx
  1039cb:	2e 8d 74 26 00       	lea    %cs:0x0(%esi,%eiz,1),%esi
  1039d0:	01 d2                	add    %edx,%edx
  1039d2:	83 c1 01             	add    $0x1,%ecx
  1039d5:	39 c2                	cmp    %eax,%edx
  1039d7:	72 f7                	jb     1039d0 <free_pages+0x30>
  1039d9:	83 f9 0a             	cmp    $0xa,%ecx
  1039dc:	77 12                	ja     1039f0 <free_pages+0x50>
  1039de:	89 d8                	mov    %ebx,%eax
  1039e0:	8b 5d fc             	mov    -0x4(%ebp),%ebx
  1039e3:	89 ca                	mov    %ecx,%edx
  1039e5:	c9                   	leave
  1039e6:	e9 15 fc ff ff       	jmp    103600 <buddy_free_pages.part.0>
  1039eb:	2e 8d 74 26 00       	lea    %cs:0x0(%esi,%eiz,1),%esi
  1039f0:	8b 5d fc             	mov    -0x4(%ebp),%ebx
  1039f3:	c9                   	leave
  1039f4:	c3                   	ret
  1039f5:	8d 76 00             	lea    0x0(%esi),%esi
  1039f8:	31 c9                	xor    %ecx,%ecx
  1039fa:	eb e2                	jmp    1039de <free_pages+0x3e>
  1039fc:	8d 74 26 00          	lea    0x0(%esi,%eiz,1),%esi

00103a00 <slab_alloc>:
  103a00:	55                   	push   %ebp
  103a01:	89 e5                	mov    %esp,%ebp
  103a03:	57                   	push   %edi
  103a04:	56                   	push   %esi
  103a05:	53                   	push   %ebx
  103a06:	83 ec 1c             	sub    $0x1c,%esp
  103a09:	8b 45 08             	mov    0x8(%ebp),%eax
  103a0c:	85 c0                	test   %eax,%eax
  103a0e:	74 21                	je     103a31 <slab_alloc+0x31>
  103a10:	31 c9                	xor    %ecx,%ecx
  103a12:	8d b6 00 00 00 00    	lea    0x0(%esi),%esi
  103a18:	2e 8d b4 26 00 00 00 	lea    %cs:0x0(%esi,%eiz,1),%esi
  103a1f:	00 
  103a20:	39 04 8d 20 b2 10 00 	cmp    %eax,0x10b220(,%ecx,4)
  103a27:	73 17                	jae    103a40 <slab_alloc+0x40>
  103a29:	83 c1 01             	add    $0x1,%ecx
  103a2c:	83 f9 09             	cmp    $0x9,%ecx
  103a2f:	75 ef                	jne    103a20 <slab_alloc+0x20>
  103a31:	8d 65 f4             	lea    -0xc(%ebp),%esp
  103a34:	31 d2                	xor    %edx,%edx
  103a36:	5b                   	pop    %ebx
  103a37:	89 d0                	mov    %edx,%eax
  103a39:	5e                   	pop    %esi
  103a3a:	5f                   	pop    %edi
  103a3b:	5d                   	pop    %ebp
  103a3c:	c3                   	ret
  103a3d:	8d 76 00             	lea    0x0(%esi),%esi
  103a40:	6b c1 1c             	imul   $0x1c,%ecx,%eax
  103a43:	80 b8 f8 43 11 00 00 	cmpb   $0x0,0x1143f8(%eax)
  103a4a:	0f 85 00 01 00 00    	jne    103b50 <slab_alloc+0x150>
  103a50:	89 c2                	mov    %eax,%edx
  103a52:	c1 fa 02             	sar    $0x2,%edx
  103a55:	69 d2 b7 6d db b6    	imul   $0xb6db6db7,%edx,%edx
  103a5b:	8b 3c 95 20 b2 10 00 	mov    0x10b220(,%edx,4),%edi
  103a62:	89 b8 e0 43 11 00    	mov    %edi,0x1143e0(%eax)
  103a68:	b8 01 00 00 00       	mov    $0x1,%eax
  103a6d:	81 ff fc 0f 00 00    	cmp    $0xffc,%edi
  103a73:	77 09                	ja     103a7e <slab_alloc+0x7e>
  103a75:	b8 fc 0f 00 00       	mov    $0xffc,%eax
  103a7a:	31 d2                	xor    %edx,%edx
  103a7c:	f7 f7                	div    %edi
  103a7e:	6b d1 1c             	imul   $0x1c,%ecx,%edx
  103a81:	89 82 e4 43 11 00    	mov    %eax,0x1143e4(%edx)
  103a87:	c7 82 e8 43 11 00 00 	movl   $0x0,0x1143e8(%edx)
  103a8e:	00 00 00 
  103a91:	c7 82 ec 43 11 00 00 	movl   $0x0,0x1143ec(%edx)
  103a98:	00 00 00 
  103a9b:	c7 82 f0 43 11 00 00 	movl   $0x0,0x1143f0(%edx)
  103aa2:	00 00 00 
  103aa5:	c7 82 f4 43 11 00 00 	movl   $0x0,0x1143f4(%edx)
  103aac:	00 00 00 
  103aaf:	c6 82 f8 43 11 00 01 	movb   $0x1,0x1143f8(%edx)
  103ab6:	31 c0                	xor    %eax,%eax
  103ab8:	89 4d e4             	mov    %ecx,-0x1c(%ebp)
  103abb:	e8 70 fc ff ff       	call   103730 <buddy_alloc_pages.part.0>
  103ac0:	83 f8 ff             	cmp    $0xffffffff,%eax
  103ac3:	0f 84 ca 00 00 00    	je     103b93 <slab_alloc+0x193>
  103ac9:	83 ec 04             	sub    $0x4,%esp
  103acc:	c1 e0 0c             	shl    $0xc,%eax
  103acf:	89 45 e0             	mov    %eax,-0x20(%ebp)
  103ad2:	89 c3                	mov    %eax,%ebx
  103ad4:	68 00 10 00 00       	push   $0x1000
  103ad9:	6a 00                	push   $0x0
  103adb:	50                   	push   %eax
  103adc:	e8 bf c9 ff ff       	call   1004a0 <memset>
  103ae1:	83 c4 10             	add    $0x10,%esp
  103ae4:	89 da                	mov    %ebx,%edx
  103ae6:	85 db                	test   %ebx,%ebx
  103ae8:	0f 84 b5 00 00 00    	je     103ba3 <slab_alloc+0x1a3>
  103aee:	8b 4d e4             	mov    -0x1c(%ebp),%ecx
  103af1:	6b c1 1c             	imul   $0x1c,%ecx,%eax
  103af4:	8b 98 e4 43 11 00    	mov    0x1143e4(%eax),%ebx
  103afa:	89 de                	mov    %ebx,%esi
  103afc:	85 db                	test   %ebx,%ebx
  103afe:	74 34                	je     103b34 <slab_alloc+0x134>
  103b00:	8b b8 e0 43 11 00    	mov    0x1143e0(%eax),%edi
  103b06:	8b 98 e8 43 11 00    	mov    0x1143e8(%eax),%ebx
  103b0c:	89 d0                	mov    %edx,%eax
  103b0e:	31 d2                	xor    %edx,%edx
  103b10:	89 d9                	mov    %ebx,%ecx
  103b12:	83 c2 01             	add    $0x1,%edx
  103b15:	89 c3                	mov    %eax,%ebx
  103b17:	89 08                	mov    %ecx,(%eax)
  103b19:	01 f8                	add    %edi,%eax
  103b1b:	39 d6                	cmp    %edx,%esi
  103b1d:	75 f1                	jne    103b10 <slab_alloc+0x110>
  103b1f:	8b 4d e4             	mov    -0x1c(%ebp),%ecx
  103b22:	8d 46 ff             	lea    -0x1(%esi),%eax
  103b25:	0f af c7             	imul   %edi,%eax
  103b28:	03 45 e0             	add    -0x20(%ebp),%eax
  103b2b:	6b d1 1c             	imul   $0x1c,%ecx,%edx
  103b2e:	89 82 e8 43 11 00    	mov    %eax,0x1143e8(%edx)
  103b34:	6b c1 1c             	imul   $0x1c,%ecx,%eax
  103b37:	01 b0 ec 43 11 00    	add    %esi,0x1143ec(%eax)
  103b3d:	8b 90 e8 43 11 00    	mov    0x1143e8(%eax),%edx
  103b43:	83 80 f4 43 11 00 01 	addl   $0x1,0x1143f4(%eax)
  103b4a:	eb 12                	jmp    103b5e <slab_alloc+0x15e>
  103b4c:	8d 74 26 00          	lea    0x0(%esi,%eiz,1),%esi
  103b50:	8b 90 e8 43 11 00    	mov    0x1143e8(%eax),%edx
  103b56:	85 d2                	test   %edx,%edx
  103b58:	0f 84 58 ff ff ff    	je     103ab6 <slab_alloc+0xb6>
  103b5e:	6b c9 1c             	imul   $0x1c,%ecx,%ecx
  103b61:	8b 02                	mov    (%edx),%eax
  103b63:	83 ec 04             	sub    $0x4,%esp
  103b66:	89 81 e8 43 11 00    	mov    %eax,0x1143e8(%ecx)
  103b6c:	81 c1 e0 43 11 00    	add    $0x1143e0,%ecx
  103b72:	83 41 10 01          	addl   $0x1,0x10(%ecx)
  103b76:	ff 31                	push   (%ecx)
  103b78:	6a 00                	push   $0x0
  103b7a:	52                   	push   %edx
  103b7b:	89 55 e4             	mov    %edx,-0x1c(%ebp)
  103b7e:	e8 1d c9 ff ff       	call   1004a0 <memset>
  103b83:	8b 55 e4             	mov    -0x1c(%ebp),%edx
  103b86:	83 c4 10             	add    $0x10,%esp
  103b89:	8d 65 f4             	lea    -0xc(%ebp),%esp
  103b8c:	5b                   	pop    %ebx
  103b8d:	5e                   	pop    %esi
  103b8e:	89 d0                	mov    %edx,%eax
  103b90:	5f                   	pop    %edi
  103b91:	5d                   	pop    %ebp
  103b92:	c3                   	ret
  103b93:	83 ec 0c             	sub    $0xc,%esp
  103b96:	68 38 bf 10 00       	push   $0x10bf38
  103b9b:	e8 70 d0 ff ff       	call   100c10 <terminal_writestring>
  103ba0:	83 c4 10             	add    $0x10,%esp
  103ba3:	83 ec 0c             	sub    $0xc,%esp
  103ba6:	68 64 d0 10 00       	push   $0x10d064
  103bab:	e8 60 d0 ff ff       	call   100c10 <terminal_writestring>
  103bb0:	83 c4 10             	add    $0x10,%esp
  103bb3:	e9 79 fe ff ff       	jmp    103a31 <slab_alloc+0x31>
  103bb8:	2e 8d b4 26 00 00 00 	lea    %cs:0x0(%esi,%eiz,1),%esi
  103bbf:	00 

00103bc0 <kmalloc>:
  103bc0:	55                   	push   %ebp
  103bc1:	89 e5                	mov    %esp,%ebp
  103bc3:	56                   	push   %esi
  103bc4:	53                   	push   %ebx
  103bc5:	83 ec 10             	sub    $0x10,%esp
  103bc8:	8b 75 08             	mov    0x8(%ebp),%esi
  103bcb:	85 f6                	test   %esi,%esi
  103bcd:	0f 84 19 01 00 00    	je     103cec <kmalloc+0x12c>
  103bd3:	81 fe 00 08 00 00    	cmp    $0x800,%esi
  103bd9:	0f 86 21 01 00 00    	jbe    103d00 <kmalloc+0x140>
  103bdf:	83 c6 03             	add    $0x3,%esi
  103be2:	b8 10 00 00 00       	mov    $0x10,%eax
  103be7:	8b 1d ec 44 11 00    	mov    0x1144ec,%ebx
  103bed:	83 e6 fc             	and    $0xfffffffc,%esi
  103bf0:	39 c6                	cmp    %eax,%esi
  103bf2:	0f 42 f0             	cmovb  %eax,%esi
  103bf5:	eb 3c                	jmp    103c33 <kmalloc+0x73>
  103bf7:	90                   	nop
  103bf8:	2e 8d b4 26 00 00 00 	lea    %cs:0x0(%esi,%eiz,1),%esi
  103bff:	00 
  103c00:	3b 1d 14 e0 10 00    	cmp    0x10e014,%ebx
  103c06:	73 37                	jae    103c3f <kmalloc+0x7f>
  103c08:	8b 43 04             	mov    0x4(%ebx),%eax
  103c0b:	3d ef be ad de       	cmp    $0xdeadbeef,%eax
  103c10:	74 07                	je     103c19 <kmalloc+0x59>
  103c12:	3d 0d f0 ad ba       	cmp    $0xbaadf00d,%eax
  103c17:	75 26                	jne    103c3f <kmalloc+0x7f>
  103c19:	8b 03                	mov    (%ebx),%eax
  103c1b:	3d 00 00 00 0f       	cmp    $0xf000000,%eax
  103c20:	77 1d                	ja     103c3f <kmalloc+0x7f>
  103c22:	80 7b 14 00          	cmpb   $0x0,0x14(%ebx)
  103c26:	74 08                	je     103c30 <kmalloc+0x70>
  103c28:	39 f0                	cmp    %esi,%eax
  103c2a:	0f 83 e0 00 00 00    	jae    103d10 <kmalloc+0x150>
  103c30:	8b 5b 0c             	mov    0xc(%ebx),%ebx
  103c33:	85 db                	test   %ebx,%ebx
  103c35:	74 29                	je     103c60 <kmalloc+0xa0>
  103c37:	3b 1d 1c e0 10 00    	cmp    0x10e01c,%ebx
  103c3d:	73 c1                	jae    103c00 <kmalloc+0x40>
  103c3f:	80 3d c0 43 11 00 00 	cmpb   $0x0,0x1143c0
  103c46:	74 e8                	je     103c30 <kmalloc+0x70>
  103c48:	83 ec 0c             	sub    $0xc,%esp
  103c4b:	68 88 d0 10 00       	push   $0x10d088
  103c50:	e8 bb cf ff ff       	call   100c10 <terminal_writestring>
  103c55:	83 c4 10             	add    $0x10,%esp
  103c58:	eb d6                	jmp    103c30 <kmalloc+0x70>
  103c5a:	8d b6 00 00 00 00    	lea    0x0(%esi),%esi
  103c60:	a1 14 e0 10 00       	mov    0x10e014,%eax
  103c65:	8d 54 30 1c          	lea    0x1c(%eax,%esi,1),%edx
  103c69:	39 15 18 e0 10 00    	cmp    %edx,0x10e018
  103c6f:	72 6b                	jb     103cdc <kmalloc+0x11c>
  103c71:	8b 15 ec 44 11 00    	mov    0x1144ec,%edx
  103c77:	89 30                	mov    %esi,(%eax)
  103c79:	c7 40 04 ef be ad de 	movl   $0xdeadbeef,0x4(%eax)
  103c80:	c7 40 08 be ba fe ca 	movl   $0xcafebabe,0x8(%eax)
